
EncoderTest.elf:     file format elf32-littlearm

Sections:
Idx Name          Size      VMA       LMA       File off  Algn
  0 .isr_vector   000001ac  08000000  08000000  00001000  2**0
                  CONTENTS, ALLOC, LOAD, READONLY, DATA
  1 .text         00002c30  080001ac  080001ac  000011ac  2**2
                  CONTENTS, ALLOC, LOAD, READONLY, CODE
  2 .rodata       00000020  08002ddc  08002ddc  00003ddc  2**2
                  CONTENTS, ALLOC, LOAD, READONLY, DATA
  3 .ARM.extab    00000000  08002dfc  08002dfc  0000400c  2**0
                  CONTENTS, READONLY
  4 .ARM          00000000  08002dfc  08002dfc  0000400c  2**0
                  CONTENTS, READONLY
  5 .preinit_array 00000000  08002dfc  08002dfc  0000400c  2**0
                  CONTENTS, ALLOC, LOAD, DATA
  6 .init_array   00000004  08002dfc  08002dfc  00003dfc  2**2
                  CONTENTS, ALLOC, LOAD, READONLY, DATA
  7 .fini_array   00000004  08002e00  08002e00  00003e00  2**2
                  CONTENTS, ALLOC, LOAD, READONLY, DATA
  8 .data         0000000c  20000000  08002e04  00004000  2**2
                  CONTENTS, ALLOC, LOAD, DATA
  9 .ccmram       00000000  10000000  10000000  0000400c  2**0
                  CONTENTS
 10 .bss          00000084  2000000c  2000000c  0000400c  2**2
                  ALLOC
 11 ._user_heap_stack 00000600  20000090  20000090  0000400c  2**0
                  ALLOC
 12 .ARM.attributes 00000030  00000000  00000000  0000400c  2**0
                  CONTENTS, READONLY
 13 .debug_info   0000bf56  00000000  00000000  0000403c  2**0
                  CONTENTS, READONLY, DEBUGGING, OCTETS
 14 .debug_abbrev 00002053  00000000  00000000  0000ff92  2**0
                  CONTENTS, READONLY, DEBUGGING, OCTETS
 15 .debug_aranges 00000e70  00000000  00000000  00011fe8  2**3
                  CONTENTS, READONLY, DEBUGGING, OCTETS
 16 .debug_rnglists 00000aff  00000000  00000000  00012e58  2**0
                  CONTENTS, READONLY, DEBUGGING, OCTETS
 17 .debug_macro  00026084  00000000  00000000  00013957  2**0
                  CONTENTS, READONLY, DEBUGGING, OCTETS
 18 .debug_line   0000e758  00000000  00000000  000399db  2**0
                  CONTENTS, READONLY, DEBUGGING, OCTETS
 19 .debug_str    000e8d3e  00000000  00000000  00048133  2**0
                  CONTENTS, READONLY, DEBUGGING, OCTETS
 20 .comment      00000043  00000000  00000000  00130e71  2**0
                  CONTENTS, READONLY
 21 .debug_frame  00003c74  00000000  00000000  00130eb4  2**2
                  CONTENTS, READONLY, DEBUGGING, OCTETS
 22 .debug_line_str 00000062  00000000  00000000  00134b28  2**0
                  CONTENTS, READONLY, DEBUGGING, OCTETS

Disassembly of section .text:

080001ac <__do_global_dtors_aux>:
 80001ac:	b510      	push	{r4, lr}
 80001ae:	4c05      	ldr	r4, [pc, #20]	@ (80001c4 <__do_global_dtors_aux+0x18>)
 80001b0:	7823      	ldrb	r3, [r4, #0]
 80001b2:	b933      	cbnz	r3, 80001c2 <__do_global_dtors_aux+0x16>
 80001b4:	4b04      	ldr	r3, [pc, #16]	@ (80001c8 <__do_global_dtors_aux+0x1c>)
 80001b6:	b113      	cbz	r3, 80001be <__do_global_dtors_aux+0x12>
 80001b8:	4804      	ldr	r0, [pc, #16]	@ (80001cc <__do_global_dtors_aux+0x20>)
 80001ba:	f3af 8000 	nop.w
 80001be:	2301      	movs	r3, #1
 80001c0:	7023      	strb	r3, [r4, #0]
 80001c2:	bd10      	pop	{r4, pc}
 80001c4:	2000000c 	.word	0x2000000c
 80001c8:	00000000 	.word	0x00000000
 80001cc:	08002dc4 	.word	0x08002dc4

080001d0 <frame_dummy>:
 80001d0:	b508      	push	{r3, lr}
 80001d2:	4b03      	ldr	r3, [pc, #12]	@ (80001e0 <frame_dummy+0x10>)
 80001d4:	b11b      	cbz	r3, 80001de <frame_dummy+0xe>
 80001d6:	4903      	ldr	r1, [pc, #12]	@ (80001e4 <frame_dummy+0x14>)
 80001d8:	4803      	ldr	r0, [pc, #12]	@ (80001e8 <frame_dummy+0x18>)
 80001da:	f3af 8000 	nop.w
 80001de:	bd08      	pop	{r3, pc}
 80001e0:	00000000 	.word	0x00000000
 80001e4:	20000010 	.word	0x20000010
 80001e8:	08002dc4 	.word	0x08002dc4

080001ec <LL_TIM_GetCounter>:
  * @rmtoll CNT          CNT           LL_TIM_GetCounter
  * @param  TIMx Timer instance
  * @retval Counter value (between Min_Data=0 and Max_Data=0xFFFF or 0xFFFFFFFF)
  */
__STATIC_INLINE uint32_t LL_TIM_GetCounter(const TIM_TypeDef *TIMx)
{
 80001ec:	b480      	push	{r7}
 80001ee:	b083      	sub	sp, #12
 80001f0:	af00      	add	r7, sp, #0
 80001f2:	6078      	str	r0, [r7, #4]
  return (uint32_t)(READ_REG(TIMx->CNT));
 80001f4:	687b      	ldr	r3, [r7, #4]
 80001f6:	6a5b      	ldr	r3, [r3, #36]	@ 0x24
}
 80001f8:	4618      	mov	r0, r3
 80001fa:	370c      	adds	r7, #12
 80001fc:	46bd      	mov	sp, r7
 80001fe:	f85d 7b04 	ldr.w	r7, [sp], #4
 8000202:	4770      	bx	lr

08000204 <PCVo_CalculateVelocity>:
	//return (60*(config -> Measurement_Frequency_hz))/Calculate_pulsesPerRevolution(config);
	return (60*10)/Calculate_pulsesPerRevolution(config);
}

int32_t PCVo_CalculateVelocity(PCVo_object* this)
{
 8000204:	b580      	push	{r7, lr}
 8000206:	b084      	sub	sp, #16
 8000208:	af00      	add	r7, sp, #0
 800020a:	6078      	str	r0, [r7, #4]
	uint16_t num_pulses = LL_TIM_GetCounter(this -> timers -> Encoder_Timer);
 800020c:	687b      	ldr	r3, [r7, #4]
 800020e:	685b      	ldr	r3, [r3, #4]
 8000210:	681b      	ldr	r3, [r3, #0]
 8000212:	4618      	mov	r0, r3
 8000214:	f7ff ffea 	bl	80001ec <LL_TIM_GetCounter>
 8000218:	4603      	mov	r3, r0
 800021a:	81fb      	strh	r3, [r7, #14]

	int16_t delta = (int16_t)(num_pulses - (this -> oldNumPulses));
 800021c:	687b      	ldr	r3, [r7, #4]
 800021e:	895b      	ldrh	r3, [r3, #10]
 8000220:	89fa      	ldrh	r2, [r7, #14]
 8000222:	1ad3      	subs	r3, r2, r3
 8000224:	b29b      	uxth	r3, r3
 8000226:	81bb      	strh	r3, [r7, #12]
	int32_t velocity = delta*(this -> Measurement_Factor1);
 8000228:	f9b7 300c 	ldrsh.w	r3, [r7, #12]
 800022c:	687a      	ldr	r2, [r7, #4]
 800022e:	68d2      	ldr	r2, [r2, #12]
 8000230:	fb02 f303 	mul.w	r3, r2, r3
 8000234:	60bb      	str	r3, [r7, #8]
	this -> oldNumPulses = num_pulses;
 8000236:	687b      	ldr	r3, [r7, #4]
 8000238:	89fa      	ldrh	r2, [r7, #14]
 800023a:	815a      	strh	r2, [r3, #10]
	return velocity;
 800023c:	68bb      	ldr	r3, [r7, #8]
}
 800023e:	4618      	mov	r0, r3
 8000240:	3710      	adds	r7, #16
 8000242:	46bd      	mov	sp, r7
 8000244:	bd80      	pop	{r7, pc}

08000246 <LL_TIM_EnableCounter>:
{
 8000246:	b480      	push	{r7}
 8000248:	b083      	sub	sp, #12
 800024a:	af00      	add	r7, sp, #0
 800024c:	6078      	str	r0, [r7, #4]
  SET_BIT(TIMx->CR1, TIM_CR1_CEN);
 800024e:	687b      	ldr	r3, [r7, #4]
 8000250:	681b      	ldr	r3, [r3, #0]
 8000252:	f043 0201 	orr.w	r2, r3, #1
 8000256:	687b      	ldr	r3, [r7, #4]
 8000258:	601a      	str	r2, [r3, #0]
}
 800025a:	bf00      	nop
 800025c:	370c      	adds	r7, #12
 800025e:	46bd      	mov	sp, r7
 8000260:	f85d 7b04 	ldr.w	r7, [sp], #4
 8000264:	4770      	bx	lr

08000266 <LL_TIM_SetCounter>:
{
 8000266:	b480      	push	{r7}
 8000268:	b083      	sub	sp, #12
 800026a:	af00      	add	r7, sp, #0
 800026c:	6078      	str	r0, [r7, #4]
 800026e:	6039      	str	r1, [r7, #0]
  WRITE_REG(TIMx->CNT, Counter);
 8000270:	687b      	ldr	r3, [r7, #4]
 8000272:	683a      	ldr	r2, [r7, #0]
 8000274:	625a      	str	r2, [r3, #36]	@ 0x24
}
 8000276:	bf00      	nop
 8000278:	370c      	adds	r7, #12
 800027a:	46bd      	mov	sp, r7
 800027c:	f85d 7b04 	ldr.w	r7, [sp], #4
 8000280:	4770      	bx	lr

08000282 <LL_TIM_ClearFlag_UPDATE>:
  * @rmtoll SR           UIF           LL_TIM_ClearFlag_UPDATE
  * @param  TIMx Timer instance
  * @retval None
  */
__STATIC_INLINE void LL_TIM_ClearFlag_UPDATE(TIM_TypeDef *TIMx)
{
 8000282:	b480      	push	{r7}
 8000284:	b083      	sub	sp, #12
 8000286:	af00      	add	r7, sp, #0
 8000288:	6078      	str	r0, [r7, #4]
  WRITE_REG(TIMx->SR, ~(TIM_SR_UIF));
 800028a:	687b      	ldr	r3, [r7, #4]
 800028c:	f06f 0201 	mvn.w	r2, #1
 8000290:	611a      	str	r2, [r3, #16]
}
 8000292:	bf00      	nop
 8000294:	370c      	adds	r7, #12
 8000296:	46bd      	mov	sp, r7
 8000298:	f85d 7b04 	ldr.w	r7, [sp], #4
 800029c:	4770      	bx	lr

0800029e <LL_TIM_GenerateEvent_UPDATE>:
  * @rmtoll EGR          UG            LL_TIM_GenerateEvent_UPDATE
  * @param  TIMx Timer instance
  * @retval None
  */
__STATIC_INLINE void LL_TIM_GenerateEvent_UPDATE(TIM_TypeDef *TIMx)
{
 800029e:	b480      	push	{r7}
 80002a0:	b083      	sub	sp, #12
 80002a2:	af00      	add	r7, sp, #0
 80002a4:	6078      	str	r0, [r7, #4]
  SET_BIT(TIMx->EGR, TIM_EGR_UG);
 80002a6:	687b      	ldr	r3, [r7, #4]
 80002a8:	695b      	ldr	r3, [r3, #20]
 80002aa:	f043 0201 	orr.w	r2, r3, #1
 80002ae:	687b      	ldr	r3, [r7, #4]
 80002b0:	615a      	str	r2, [r3, #20]
}
 80002b2:	bf00      	nop
 80002b4:	370c      	adds	r7, #12
 80002b6:	46bd      	mov	sp, r7
 80002b8:	f85d 7b04 	ldr.w	r7, [sp], #4
 80002bc:	4770      	bx	lr
	...

080002c0 <PCVs_Start>:
	old_num_pulses = num_pulses;
	return result;
}

void PCVs_Start()
{
 80002c0:	b580      	push	{r7, lr}
 80002c2:	af00      	add	r7, sp, #0
	LL_TIM_SetCounter(Encoder_Timer, 0);
 80002c4:	4b0c      	ldr	r3, [pc, #48]	@ (80002f8 <PCVs_Start+0x38>)
 80002c6:	2100      	movs	r1, #0
 80002c8:	4618      	mov	r0, r3
 80002ca:	f7ff ffcc 	bl	8000266 <LL_TIM_SetCounter>

	LL_TIM_EnableCounter(Encoder_Timer);
 80002ce:	4b0a      	ldr	r3, [pc, #40]	@ (80002f8 <PCVs_Start+0x38>)
 80002d0:	4618      	mov	r0, r3
 80002d2:	f7ff ffb8 	bl	8000246 <LL_TIM_EnableCounter>
	LL_TIM_EnableCounter(MeasurementFrame_Timer);
 80002d6:	4b09      	ldr	r3, [pc, #36]	@ (80002fc <PCVs_Start+0x3c>)
 80002d8:	4618      	mov	r0, r3
 80002da:	f7ff ffb4 	bl	8000246 <LL_TIM_EnableCounter>

	LL_TIM_GenerateEvent_UPDATE(MeasurementFrame_Timer);
 80002de:	4b07      	ldr	r3, [pc, #28]	@ (80002fc <PCVs_Start+0x3c>)
 80002e0:	4618      	mov	r0, r3
 80002e2:	f7ff ffdc 	bl	800029e <LL_TIM_GenerateEvent_UPDATE>
	LL_TIM_ClearFlag_UPDATE(MeasurementFrame_Timer);
 80002e6:	4b05      	ldr	r3, [pc, #20]	@ (80002fc <PCVs_Start+0x3c>)
 80002e8:	4618      	mov	r0, r3
 80002ea:	f7ff ffca 	bl	8000282 <LL_TIM_ClearFlag_UPDATE>

	old_num_pulses = 0;
 80002ee:	4b04      	ldr	r3, [pc, #16]	@ (8000300 <PCVs_Start+0x40>)
 80002f0:	2200      	movs	r2, #0
 80002f2:	801a      	strh	r2, [r3, #0]
}
 80002f4:	bf00      	nop
 80002f6:	bd80      	pop	{r7, pc}
 80002f8:	40010000 	.word	0x40010000
 80002fc:	40001000 	.word	0x40001000
 8000300:	20000028 	.word	0x20000028

08000304 <LL_AHB1_GRP1_EnableClock>:
  *
  *         (*) value not defined in all devices.
  * @retval None
  */
__STATIC_INLINE void LL_AHB1_GRP1_EnableClock(uint32_t Periphs)
{
 8000304:	b480      	push	{r7}
 8000306:	b085      	sub	sp, #20
 8000308:	af00      	add	r7, sp, #0
 800030a:	6078      	str	r0, [r7, #4]
  __IO uint32_t tmpreg;
  SET_BIT(RCC->AHB1ENR, Periphs);
 800030c:	4b08      	ldr	r3, [pc, #32]	@ (8000330 <LL_AHB1_GRP1_EnableClock+0x2c>)
 800030e:	6b1a      	ldr	r2, [r3, #48]	@ 0x30
 8000310:	4907      	ldr	r1, [pc, #28]	@ (8000330 <LL_AHB1_GRP1_EnableClock+0x2c>)
 8000312:	687b      	ldr	r3, [r7, #4]
 8000314:	4313      	orrs	r3, r2
 8000316:	630b      	str	r3, [r1, #48]	@ 0x30
  /* Delay after an RCC peripheral clock enabling */
  tmpreg = READ_BIT(RCC->AHB1ENR, Periphs);
 8000318:	4b05      	ldr	r3, [pc, #20]	@ (8000330 <LL_AHB1_GRP1_EnableClock+0x2c>)
 800031a:	6b1a      	ldr	r2, [r3, #48]	@ 0x30
 800031c:	687b      	ldr	r3, [r7, #4]
 800031e:	4013      	ands	r3, r2
 8000320:	60fb      	str	r3, [r7, #12]
  (void)tmpreg;
 8000322:	68fb      	ldr	r3, [r7, #12]
}
 8000324:	bf00      	nop
 8000326:	3714      	adds	r7, #20
 8000328:	46bd      	mov	sp, r7
 800032a:	f85d 7b04 	ldr.w	r7, [sp], #4
 800032e:	4770      	bx	lr
 8000330:	40023800 	.word	0x40023800

08000334 <LL_SYSCFG_SetEXTISource>:
  *         @arg @ref LL_SYSCFG_EXTI_LINE14
  *         @arg @ref LL_SYSCFG_EXTI_LINE15
  * @retval None
  */
__STATIC_INLINE void LL_SYSCFG_SetEXTISource(uint32_t Port, uint32_t Line)
{
 8000334:	b480      	push	{r7}
 8000336:	b087      	sub	sp, #28
 8000338:	af00      	add	r7, sp, #0
 800033a:	6078      	str	r0, [r7, #4]
 800033c:	6039      	str	r1, [r7, #0]
  MODIFY_REG(SYSCFG->EXTICR[Line & 0xFF], (Line >> 16), Port << POSITION_VAL((Line >> 16)));
 800033e:	4a17      	ldr	r2, [pc, #92]	@ (800039c <LL_SYSCFG_SetEXTISource+0x68>)
 8000340:	683b      	ldr	r3, [r7, #0]
 8000342:	b2db      	uxtb	r3, r3
 8000344:	3302      	adds	r3, #2
 8000346:	f852 2023 	ldr.w	r2, [r2, r3, lsl #2]
 800034a:	683b      	ldr	r3, [r7, #0]
 800034c:	0c1b      	lsrs	r3, r3, #16
 800034e:	43db      	mvns	r3, r3
 8000350:	ea02 0103 	and.w	r1, r2, r3
 8000354:	683b      	ldr	r3, [r7, #0]
 8000356:	0c1b      	lsrs	r3, r3, #16
 8000358:	613b      	str	r3, [r7, #16]
  uint32_t result;

#if ((defined (__ARM_ARCH_7M__      ) && (__ARM_ARCH_7M__      == 1)) || \
     (defined (__ARM_ARCH_7EM__     ) && (__ARM_ARCH_7EM__     == 1)) || \
     (defined (__ARM_ARCH_8M_MAIN__ ) && (__ARM_ARCH_8M_MAIN__ == 1))    )
   __ASM ("rbit %0, %1" : "=r" (result) : "r" (value) );
 800035a:	693b      	ldr	r3, [r7, #16]
 800035c:	fa93 f3a3 	rbit	r3, r3
 8000360:	60fb      	str	r3, [r7, #12]
    result |= value & 1U;
    s--;
  }
  result <<= s;                        /* shift when v's highest bits are zero */
#endif
  return result;
 8000362:	68fb      	ldr	r3, [r7, #12]
 8000364:	617b      	str	r3, [r7, #20]
     optimisations using the logic "value was passed to __builtin_clz, so it
     is non-zero".
     ARM GCC 7.3 and possibly earlier will optimise this test away, leaving a
     single CLZ instruction.
   */
  if (value == 0U)
 8000366:	697b      	ldr	r3, [r7, #20]
 8000368:	2b00      	cmp	r3, #0
 800036a:	d101      	bne.n	8000370 <LL_SYSCFG_SetEXTISource+0x3c>
  {
    return 32U;
 800036c:	2320      	movs	r3, #32
 800036e:	e003      	b.n	8000378 <LL_SYSCFG_SetEXTISource+0x44>
  }
  return __builtin_clz(value);
 8000370:	697b      	ldr	r3, [r7, #20]
 8000372:	fab3 f383 	clz	r3, r3
 8000376:	b2db      	uxtb	r3, r3
 8000378:	461a      	mov	r2, r3
 800037a:	687b      	ldr	r3, [r7, #4]
 800037c:	fa03 f202 	lsl.w	r2, r3, r2
 8000380:	4806      	ldr	r0, [pc, #24]	@ (800039c <LL_SYSCFG_SetEXTISource+0x68>)
 8000382:	683b      	ldr	r3, [r7, #0]
 8000384:	b2db      	uxtb	r3, r3
 8000386:	430a      	orrs	r2, r1
 8000388:	3302      	adds	r3, #2
 800038a:	f840 2023 	str.w	r2, [r0, r3, lsl #2]
}
 800038e:	bf00      	nop
 8000390:	371c      	adds	r7, #28
 8000392:	46bd      	mov	sp, r7
 8000394:	f85d 7b04 	ldr.w	r7, [sp], #4
 8000398:	4770      	bx	lr
 800039a:	bf00      	nop
 800039c:	40013800 	.word	0x40013800

080003a0 <LL_GPIO_SetPinMode>:
  *         @arg @ref LL_GPIO_MODE_ALTERNATE
  *         @arg @ref LL_GPIO_MODE_ANALOG
  * @retval None
  */
__STATIC_INLINE void LL_GPIO_SetPinMode(GPIO_TypeDef *GPIOx, uint32_t Pin, uint32_t Mode)
{
 80003a0:	b480      	push	{r7}
 80003a2:	b08b      	sub	sp, #44	@ 0x2c
 80003a4:	af00      	add	r7, sp, #0
 80003a6:	60f8      	str	r0, [r7, #12]
 80003a8:	60b9      	str	r1, [r7, #8]
 80003aa:	607a      	str	r2, [r7, #4]
  MODIFY_REG(GPIOx->MODER, (GPIO_MODER_MODER0 << (POSITION_VAL(Pin) * 2U)), (Mode << (POSITION_VAL(Pin) * 2U)));
 80003ac:	68fb      	ldr	r3, [r7, #12]
 80003ae:	681a      	ldr	r2, [r3, #0]
 80003b0:	68bb      	ldr	r3, [r7, #8]
 80003b2:	617b      	str	r3, [r7, #20]
   __ASM ("rbit %0, %1" : "=r" (result) : "r" (value) );
 80003b4:	697b      	ldr	r3, [r7, #20]
 80003b6:	fa93 f3a3 	rbit	r3, r3
 80003ba:	613b      	str	r3, [r7, #16]
  return result;
 80003bc:	693b      	ldr	r3, [r7, #16]
 80003be:	61bb      	str	r3, [r7, #24]
  if (value == 0U)
 80003c0:	69bb      	ldr	r3, [r7, #24]
 80003c2:	2b00      	cmp	r3, #0
 80003c4:	d101      	bne.n	80003ca <LL_GPIO_SetPinMode+0x2a>
    return 32U;
 80003c6:	2320      	movs	r3, #32
 80003c8:	e003      	b.n	80003d2 <LL_GPIO_SetPinMode+0x32>
  return __builtin_clz(value);
 80003ca:	69bb      	ldr	r3, [r7, #24]
 80003cc:	fab3 f383 	clz	r3, r3
 80003d0:	b2db      	uxtb	r3, r3
 80003d2:	005b      	lsls	r3, r3, #1
 80003d4:	2103      	movs	r1, #3
 80003d6:	fa01 f303 	lsl.w	r3, r1, r3
 80003da:	43db      	mvns	r3, r3
 80003dc:	401a      	ands	r2, r3
 80003de:	68bb      	ldr	r3, [r7, #8]
 80003e0:	623b      	str	r3, [r7, #32]
   __ASM ("rbit %0, %1" : "=r" (result) : "r" (value) );
 80003e2:	6a3b      	ldr	r3, [r7, #32]
 80003e4:	fa93 f3a3 	rbit	r3, r3
 80003e8:	61fb      	str	r3, [r7, #28]
  return result;
 80003ea:	69fb      	ldr	r3, [r7, #28]
 80003ec:	627b      	str	r3, [r7, #36]	@ 0x24
  if (value == 0U)
 80003ee:	6a7b      	ldr	r3, [r7, #36]	@ 0x24
 80003f0:	2b00      	cmp	r3, #0
 80003f2:	d101      	bne.n	80003f8 <LL_GPIO_SetPinMode+0x58>
    return 32U;
 80003f4:	2320      	movs	r3, #32
 80003f6:	e003      	b.n	8000400 <LL_GPIO_SetPinMode+0x60>
  return __builtin_clz(value);
 80003f8:	6a7b      	ldr	r3, [r7, #36]	@ 0x24
 80003fa:	fab3 f383 	clz	r3, r3
 80003fe:	b2db      	uxtb	r3, r3
 8000400:	005b      	lsls	r3, r3, #1
 8000402:	6879      	ldr	r1, [r7, #4]
 8000404:	fa01 f303 	lsl.w	r3, r1, r3
 8000408:	431a      	orrs	r2, r3
 800040a:	68fb      	ldr	r3, [r7, #12]
 800040c:	601a      	str	r2, [r3, #0]
}
 800040e:	bf00      	nop
 8000410:	372c      	adds	r7, #44	@ 0x2c
 8000412:	46bd      	mov	sp, r7
 8000414:	f85d 7b04 	ldr.w	r7, [sp], #4
 8000418:	4770      	bx	lr

0800041a <LL_GPIO_SetPinPull>:
  *         @arg @ref LL_GPIO_PULL_UP
  *         @arg @ref LL_GPIO_PULL_DOWN
  * @retval None
  */
__STATIC_INLINE void LL_GPIO_SetPinPull(GPIO_TypeDef *GPIOx, uint32_t Pin, uint32_t Pull)
{
 800041a:	b480      	push	{r7}
 800041c:	b08b      	sub	sp, #44	@ 0x2c
 800041e:	af00      	add	r7, sp, #0
 8000420:	60f8      	str	r0, [r7, #12]
 8000422:	60b9      	str	r1, [r7, #8]
 8000424:	607a      	str	r2, [r7, #4]
  MODIFY_REG(GPIOx->PUPDR, (GPIO_PUPDR_PUPDR0 << (POSITION_VAL(Pin) * 2U)), (Pull << (POSITION_VAL(Pin) * 2U)));
 8000426:	68fb      	ldr	r3, [r7, #12]
 8000428:	68da      	ldr	r2, [r3, #12]
 800042a:	68bb      	ldr	r3, [r7, #8]
 800042c:	617b      	str	r3, [r7, #20]
   __ASM ("rbit %0, %1" : "=r" (result) : "r" (value) );
 800042e:	697b      	ldr	r3, [r7, #20]
 8000430:	fa93 f3a3 	rbit	r3, r3
 8000434:	613b      	str	r3, [r7, #16]
  return result;
 8000436:	693b      	ldr	r3, [r7, #16]
 8000438:	61bb      	str	r3, [r7, #24]
  if (value == 0U)
 800043a:	69bb      	ldr	r3, [r7, #24]
 800043c:	2b00      	cmp	r3, #0
 800043e:	d101      	bne.n	8000444 <LL_GPIO_SetPinPull+0x2a>
    return 32U;
 8000440:	2320      	movs	r3, #32
 8000442:	e003      	b.n	800044c <LL_GPIO_SetPinPull+0x32>
  return __builtin_clz(value);
 8000444:	69bb      	ldr	r3, [r7, #24]
 8000446:	fab3 f383 	clz	r3, r3
 800044a:	b2db      	uxtb	r3, r3
 800044c:	005b      	lsls	r3, r3, #1
 800044e:	2103      	movs	r1, #3
 8000450:	fa01 f303 	lsl.w	r3, r1, r3
 8000454:	43db      	mvns	r3, r3
 8000456:	401a      	ands	r2, r3
 8000458:	68bb      	ldr	r3, [r7, #8]
 800045a:	623b      	str	r3, [r7, #32]
   __ASM ("rbit %0, %1" : "=r" (result) : "r" (value) );
 800045c:	6a3b      	ldr	r3, [r7, #32]
 800045e:	fa93 f3a3 	rbit	r3, r3
 8000462:	61fb      	str	r3, [r7, #28]
  return result;
 8000464:	69fb      	ldr	r3, [r7, #28]
 8000466:	627b      	str	r3, [r7, #36]	@ 0x24
  if (value == 0U)
 8000468:	6a7b      	ldr	r3, [r7, #36]	@ 0x24
 800046a:	2b00      	cmp	r3, #0
 800046c:	d101      	bne.n	8000472 <LL_GPIO_SetPinPull+0x58>
    return 32U;
 800046e:	2320      	movs	r3, #32
 8000470:	e003      	b.n	800047a <LL_GPIO_SetPinPull+0x60>
  return __builtin_clz(value);
 8000472:	6a7b      	ldr	r3, [r7, #36]	@ 0x24
 8000474:	fab3 f383 	clz	r3, r3
 8000478:	b2db      	uxtb	r3, r3
 800047a:	005b      	lsls	r3, r3, #1
 800047c:	6879      	ldr	r1, [r7, #4]
 800047e:	fa01 f303 	lsl.w	r3, r1, r3
 8000482:	431a      	orrs	r2, r3
 8000484:	68fb      	ldr	r3, [r7, #12]
 8000486:	60da      	str	r2, [r3, #12]
}
 8000488:	bf00      	nop
 800048a:	372c      	adds	r7, #44	@ 0x2c
 800048c:	46bd      	mov	sp, r7
 800048e:	f85d 7b04 	ldr.w	r7, [sp], #4
 8000492:	4770      	bx	lr

08000494 <LL_GPIO_ResetOutputPin>:
  *         @arg @ref LL_GPIO_PIN_15
  *         @arg @ref LL_GPIO_PIN_ALL
  * @retval None
  */
__STATIC_INLINE void LL_GPIO_ResetOutputPin(GPIO_TypeDef *GPIOx, uint32_t PinMask)
{
 8000494:	b480      	push	{r7}
 8000496:	b083      	sub	sp, #12
 8000498:	af00      	add	r7, sp, #0
 800049a:	6078      	str	r0, [r7, #4]
 800049c:	6039      	str	r1, [r7, #0]
  WRITE_REG(GPIOx->BSRR, (PinMask << 16));
 800049e:	683b      	ldr	r3, [r7, #0]
 80004a0:	041a      	lsls	r2, r3, #16
 80004a2:	687b      	ldr	r3, [r7, #4]
 80004a4:	619a      	str	r2, [r3, #24]
}
 80004a6:	bf00      	nop
 80004a8:	370c      	adds	r7, #12
 80004aa:	46bd      	mov	sp, r7
 80004ac:	f85d 7b04 	ldr.w	r7, [sp], #4
 80004b0:	4770      	bx	lr
	...

080004b4 <MX_GPIO_Init>:
     PA12   ------> USB_OTG_FS_DP
     PG11   ------> ETH_TX_EN
     PG13   ------> ETH_TXD0
*/
void MX_GPIO_Init(void)
{
 80004b4:	b580      	push	{r7, lr}
 80004b6:	b088      	sub	sp, #32
 80004b8:	af00      	add	r7, sp, #0

  LL_EXTI_InitTypeDef EXTI_InitStruct = {0};
 80004ba:	f107 0318 	add.w	r3, r7, #24
 80004be:	2200      	movs	r2, #0
 80004c0:	601a      	str	r2, [r3, #0]
 80004c2:	605a      	str	r2, [r3, #4]
  LL_GPIO_InitTypeDef GPIO_InitStruct = {0};
 80004c4:	463b      	mov	r3, r7
 80004c6:	2200      	movs	r2, #0
 80004c8:	601a      	str	r2, [r3, #0]
 80004ca:	605a      	str	r2, [r3, #4]
 80004cc:	609a      	str	r2, [r3, #8]
 80004ce:	60da      	str	r2, [r3, #12]
 80004d0:	611a      	str	r2, [r3, #16]
 80004d2:	615a      	str	r2, [r3, #20]

  /* GPIO Ports Clock Enable */
  LL_AHB1_GRP1_EnableClock(LL_AHB1_GRP1_PERIPH_GPIOC);
 80004d4:	2004      	movs	r0, #4
 80004d6:	f7ff ff15 	bl	8000304 <LL_AHB1_GRP1_EnableClock>
  LL_AHB1_GRP1_EnableClock(LL_AHB1_GRP1_PERIPH_GPIOH);
 80004da:	2080      	movs	r0, #128	@ 0x80
 80004dc:	f7ff ff12 	bl	8000304 <LL_AHB1_GRP1_EnableClock>
  LL_AHB1_GRP1_EnableClock(LL_AHB1_GRP1_PERIPH_GPIOA);
 80004e0:	2001      	movs	r0, #1
 80004e2:	f7ff ff0f 	bl	8000304 <LL_AHB1_GRP1_EnableClock>
  LL_AHB1_GRP1_EnableClock(LL_AHB1_GRP1_PERIPH_GPIOB);
 80004e6:	2002      	movs	r0, #2
 80004e8:	f7ff ff0c 	bl	8000304 <LL_AHB1_GRP1_EnableClock>
  LL_AHB1_GRP1_EnableClock(LL_AHB1_GRP1_PERIPH_GPIOE);
 80004ec:	2010      	movs	r0, #16
 80004ee:	f7ff ff09 	bl	8000304 <LL_AHB1_GRP1_EnableClock>
  LL_AHB1_GRP1_EnableClock(LL_AHB1_GRP1_PERIPH_GPIOD);
 80004f2:	2008      	movs	r0, #8
 80004f4:	f7ff ff06 	bl	8000304 <LL_AHB1_GRP1_EnableClock>
  LL_AHB1_GRP1_EnableClock(LL_AHB1_GRP1_PERIPH_GPIOG);
 80004f8:	2040      	movs	r0, #64	@ 0x40
 80004fa:	f7ff ff03 	bl	8000304 <LL_AHB1_GRP1_EnableClock>

  /**/
  LL_GPIO_ResetOutputPin(GPIOB, LD1_Pin|LD3_Pin|LD2_Pin);
 80004fe:	f244 0181 	movw	r1, #16513	@ 0x4081
 8000502:	486a      	ldr	r0, [pc, #424]	@ (80006ac <MX_GPIO_Init+0x1f8>)
 8000504:	f7ff ffc6 	bl	8000494 <LL_GPIO_ResetOutputPin>

  /**/
  LL_GPIO_ResetOutputPin(GPIOG, LL_GPIO_PIN_6);
 8000508:	2140      	movs	r1, #64	@ 0x40
 800050a:	4869      	ldr	r0, [pc, #420]	@ (80006b0 <MX_GPIO_Init+0x1fc>)
 800050c:	f7ff ffc2 	bl	8000494 <LL_GPIO_ResetOutputPin>

  /**/
  LL_SYSCFG_SetEXTISource(LL_SYSCFG_EXTI_PORTC, LL_SYSCFG_EXTI_LINE13);
 8000510:	4968      	ldr	r1, [pc, #416]	@ (80006b4 <MX_GPIO_Init+0x200>)
 8000512:	2002      	movs	r0, #2
 8000514:	f7ff ff0e 	bl	8000334 <LL_SYSCFG_SetEXTISource>

  /**/
  EXTI_InitStruct.Line_0_31 = LL_EXTI_LINE_13;
 8000518:	f44f 5300 	mov.w	r3, #8192	@ 0x2000
 800051c:	61bb      	str	r3, [r7, #24]
  EXTI_InitStruct.LineCommand = ENABLE;
 800051e:	2301      	movs	r3, #1
 8000520:	773b      	strb	r3, [r7, #28]
  EXTI_InitStruct.Mode = LL_EXTI_MODE_IT;
 8000522:	2300      	movs	r3, #0
 8000524:	777b      	strb	r3, [r7, #29]
  EXTI_InitStruct.Trigger = LL_EXTI_TRIGGER_RISING;
 8000526:	2301      	movs	r3, #1
 8000528:	77bb      	strb	r3, [r7, #30]
  LL_EXTI_Init(&EXTI_InitStruct);
 800052a:	f107 0318 	add.w	r3, r7, #24
 800052e:	4618      	mov	r0, r3
 8000530:	f001 fece 	bl	80022d0 <LL_EXTI_Init>

  /**/
  LL_GPIO_SetPinPull(USER_Btn_GPIO_Port, USER_Btn_Pin, LL_GPIO_PULL_NO);
 8000534:	2200      	movs	r2, #0
 8000536:	f44f 5100 	mov.w	r1, #8192	@ 0x2000
 800053a:	485f      	ldr	r0, [pc, #380]	@ (80006b8 <MX_GPIO_Init+0x204>)
 800053c:	f7ff ff6d 	bl	800041a <LL_GPIO_SetPinPull>

  /**/
  LL_GPIO_SetPinMode(USER_Btn_GPIO_Port, USER_Btn_Pin, LL_GPIO_MODE_INPUT);
 8000540:	2200      	movs	r2, #0
 8000542:	f44f 5100 	mov.w	r1, #8192	@ 0x2000
 8000546:	485c      	ldr	r0, [pc, #368]	@ (80006b8 <MX_GPIO_Init+0x204>)
 8000548:	f7ff ff2a 	bl	80003a0 <LL_GPIO_SetPinMode>

  /**/
  GPIO_InitStruct.Pin = RMII_MDC_Pin|RMII_RXD0_Pin|RMII_RXD1_Pin;
 800054c:	2332      	movs	r3, #50	@ 0x32
 800054e:	603b      	str	r3, [r7, #0]
  GPIO_InitStruct.Mode = LL_GPIO_MODE_ALTERNATE;
 8000550:	2302      	movs	r3, #2
 8000552:	607b      	str	r3, [r7, #4]
  GPIO_InitStruct.Speed = LL_GPIO_SPEED_FREQ_VERY_HIGH;
 8000554:	2303      	movs	r3, #3
 8000556:	60bb      	str	r3, [r7, #8]
  GPIO_InitStruct.OutputType = LL_GPIO_OUTPUT_PUSHPULL;
 8000558:	2300      	movs	r3, #0
 800055a:	60fb      	str	r3, [r7, #12]
  GPIO_InitStruct.Pull = LL_GPIO_PULL_NO;
 800055c:	2300      	movs	r3, #0
 800055e:	613b      	str	r3, [r7, #16]
  GPIO_InitStruct.Alternate = LL_GPIO_AF_11;
 8000560:	230b      	movs	r3, #11
 8000562:	617b      	str	r3, [r7, #20]
  LL_GPIO_Init(GPIOC, &GPIO_InitStruct);
 8000564:	463b      	mov	r3, r7
 8000566:	4619      	mov	r1, r3
 8000568:	4853      	ldr	r0, [pc, #332]	@ (80006b8 <MX_GPIO_Init+0x204>)
 800056a:	f002 f87b 	bl	8002664 <LL_GPIO_Init>

  /**/
  GPIO_InitStruct.Pin = RMII_REF_CLK_Pin|RMII_MDIO_Pin|RMII_CRS_DV_Pin;
 800056e:	2386      	movs	r3, #134	@ 0x86
 8000570:	603b      	str	r3, [r7, #0]
  GPIO_InitStruct.Mode = LL_GPIO_MODE_ALTERNATE;
 8000572:	2302      	movs	r3, #2
 8000574:	607b      	str	r3, [r7, #4]
  GPIO_InitStruct.Speed = LL_GPIO_SPEED_FREQ_VERY_HIGH;
 8000576:	2303      	movs	r3, #3
 8000578:	60bb      	str	r3, [r7, #8]
  GPIO_InitStruct.OutputType = LL_GPIO_OUTPUT_PUSHPULL;
 800057a:	2300      	movs	r3, #0
 800057c:	60fb      	str	r3, [r7, #12]
  GPIO_InitStruct.Pull = LL_GPIO_PULL_NO;
 800057e:	2300      	movs	r3, #0
 8000580:	613b      	str	r3, [r7, #16]
  GPIO_InitStruct.Alternate = LL_GPIO_AF_11;
 8000582:	230b      	movs	r3, #11
 8000584:	617b      	str	r3, [r7, #20]
  LL_GPIO_Init(GPIOA, &GPIO_InitStruct);
 8000586:	463b      	mov	r3, r7
 8000588:	4619      	mov	r1, r3
 800058a:	484c      	ldr	r0, [pc, #304]	@ (80006bc <MX_GPIO_Init+0x208>)
 800058c:	f002 f86a 	bl	8002664 <LL_GPIO_Init>

  /**/
  GPIO_InitStruct.Pin = LD1_Pin|LD3_Pin|LD2_Pin;
 8000590:	f244 0381 	movw	r3, #16513	@ 0x4081
 8000594:	603b      	str	r3, [r7, #0]
  GPIO_InitStruct.Mode = LL_GPIO_MODE_OUTPUT;
 8000596:	2301      	movs	r3, #1
 8000598:	607b      	str	r3, [r7, #4]
  GPIO_InitStruct.Speed = LL_GPIO_SPEED_FREQ_LOW;
 800059a:	2300      	movs	r3, #0
 800059c:	60bb      	str	r3, [r7, #8]
  GPIO_InitStruct.OutputType = LL_GPIO_OUTPUT_PUSHPULL;
 800059e:	2300      	movs	r3, #0
 80005a0:	60fb      	str	r3, [r7, #12]
  GPIO_InitStruct.Pull = LL_GPIO_PULL_NO;
 80005a2:	2300      	movs	r3, #0
 80005a4:	613b      	str	r3, [r7, #16]
  LL_GPIO_Init(GPIOB, &GPIO_InitStruct);
 80005a6:	463b      	mov	r3, r7
 80005a8:	4619      	mov	r1, r3
 80005aa:	4840      	ldr	r0, [pc, #256]	@ (80006ac <MX_GPIO_Init+0x1f8>)
 80005ac:	f002 f85a 	bl	8002664 <LL_GPIO_Init>

  /**/
  GPIO_InitStruct.Pin = RMII_TXD1_Pin;
 80005b0:	f44f 5300 	mov.w	r3, #8192	@ 0x2000
 80005b4:	603b      	str	r3, [r7, #0]
  GPIO_InitStruct.Mode = LL_GPIO_MODE_ALTERNATE;
 80005b6:	2302      	movs	r3, #2
 80005b8:	607b      	str	r3, [r7, #4]
  GPIO_InitStruct.Speed = LL_GPIO_SPEED_FREQ_VERY_HIGH;
 80005ba:	2303      	movs	r3, #3
 80005bc:	60bb      	str	r3, [r7, #8]
  GPIO_InitStruct.OutputType = LL_GPIO_OUTPUT_PUSHPULL;
 80005be:	2300      	movs	r3, #0
 80005c0:	60fb      	str	r3, [r7, #12]
  GPIO_InitStruct.Pull = LL_GPIO_PULL_NO;
 80005c2:	2300      	movs	r3, #0
 80005c4:	613b      	str	r3, [r7, #16]
  GPIO_InitStruct.Alternate = LL_GPIO_AF_11;
 80005c6:	230b      	movs	r3, #11
 80005c8:	617b      	str	r3, [r7, #20]
  LL_GPIO_Init(RMII_TXD1_GPIO_Port, &GPIO_InitStruct);
 80005ca:	463b      	mov	r3, r7
 80005cc:	4619      	mov	r1, r3
 80005ce:	4837      	ldr	r0, [pc, #220]	@ (80006ac <MX_GPIO_Init+0x1f8>)
 80005d0:	f002 f848 	bl	8002664 <LL_GPIO_Init>

  /**/
  GPIO_InitStruct.Pin = STLK_RX_Pin|STLK_TX_Pin;
 80005d4:	f44f 7340 	mov.w	r3, #768	@ 0x300
 80005d8:	603b      	str	r3, [r7, #0]
  GPIO_InitStruct.Mode = LL_GPIO_MODE_ALTERNATE;
 80005da:	2302      	movs	r3, #2
 80005dc:	607b      	str	r3, [r7, #4]
  GPIO_InitStruct.Speed = LL_GPIO_SPEED_FREQ_VERY_HIGH;
 80005de:	2303      	movs	r3, #3
 80005e0:	60bb      	str	r3, [r7, #8]
  GPIO_InitStruct.OutputType = LL_GPIO_OUTPUT_PUSHPULL;
 80005e2:	2300      	movs	r3, #0
 80005e4:	60fb      	str	r3, [r7, #12]
  GPIO_InitStruct.Pull = LL_GPIO_PULL_NO;
 80005e6:	2300      	movs	r3, #0
 80005e8:	613b      	str	r3, [r7, #16]
  GPIO_InitStruct.Alternate = LL_GPIO_AF_7;
 80005ea:	2307      	movs	r3, #7
 80005ec:	617b      	str	r3, [r7, #20]
  LL_GPIO_Init(GPIOD, &GPIO_InitStruct);
 80005ee:	463b      	mov	r3, r7
 80005f0:	4619      	mov	r1, r3
 80005f2:	4833      	ldr	r0, [pc, #204]	@ (80006c0 <MX_GPIO_Init+0x20c>)
 80005f4:	f002 f836 	bl	8002664 <LL_GPIO_Init>

  /**/
  GPIO_InitStruct.Pin = DIR_Pin;
 80005f8:	f44f 6300 	mov.w	r3, #2048	@ 0x800
 80005fc:	603b      	str	r3, [r7, #0]
  GPIO_InitStruct.Mode = LL_GPIO_MODE_INPUT;
 80005fe:	2300      	movs	r3, #0
 8000600:	607b      	str	r3, [r7, #4]
  GPIO_InitStruct.Pull = LL_GPIO_PULL_NO;
 8000602:	2300      	movs	r3, #0
 8000604:	613b      	str	r3, [r7, #16]
  LL_GPIO_Init(DIR_GPIO_Port, &GPIO_InitStruct);
 8000606:	463b      	mov	r3, r7
 8000608:	4619      	mov	r1, r3
 800060a:	482d      	ldr	r0, [pc, #180]	@ (80006c0 <MX_GPIO_Init+0x20c>)
 800060c:	f002 f82a 	bl	8002664 <LL_GPIO_Init>

  /**/
  GPIO_InitStruct.Pin = LL_GPIO_PIN_6;
 8000610:	2340      	movs	r3, #64	@ 0x40
 8000612:	603b      	str	r3, [r7, #0]
  GPIO_InitStruct.Mode = LL_GPIO_MODE_OUTPUT;
 8000614:	2301      	movs	r3, #1
 8000616:	607b      	str	r3, [r7, #4]
  GPIO_InitStruct.Speed = LL_GPIO_SPEED_FREQ_LOW;
 8000618:	2300      	movs	r3, #0
 800061a:	60bb      	str	r3, [r7, #8]
  GPIO_InitStruct.OutputType = LL_GPIO_OUTPUT_PUSHPULL;
 800061c:	2300      	movs	r3, #0
 800061e:	60fb      	str	r3, [r7, #12]
  GPIO_InitStruct.Pull = LL_GPIO_PULL_NO;
 8000620:	2300      	movs	r3, #0
 8000622:	613b      	str	r3, [r7, #16]
  LL_GPIO_Init(GPIOG, &GPIO_InitStruct);
 8000624:	463b      	mov	r3, r7
 8000626:	4619      	mov	r1, r3
 8000628:	4821      	ldr	r0, [pc, #132]	@ (80006b0 <MX_GPIO_Init+0x1fc>)
 800062a:	f002 f81b 	bl	8002664 <LL_GPIO_Init>

  /**/
  GPIO_InitStruct.Pin = USB_OverCurrent_Pin;
 800062e:	2380      	movs	r3, #128	@ 0x80
 8000630:	603b      	str	r3, [r7, #0]
  GPIO_InitStruct.Mode = LL_GPIO_MODE_INPUT;
 8000632:	2300      	movs	r3, #0
 8000634:	607b      	str	r3, [r7, #4]
  GPIO_InitStruct.Pull = LL_GPIO_PULL_NO;
 8000636:	2300      	movs	r3, #0
 8000638:	613b      	str	r3, [r7, #16]
  LL_GPIO_Init(USB_OverCurrent_GPIO_Port, &GPIO_InitStruct);
 800063a:	463b      	mov	r3, r7
 800063c:	4619      	mov	r1, r3
 800063e:	481c      	ldr	r0, [pc, #112]	@ (80006b0 <MX_GPIO_Init+0x1fc>)
 8000640:	f002 f810 	bl	8002664 <LL_GPIO_Init>

  /**/
  GPIO_InitStruct.Pin = USB_SOF_Pin|USB_ID_Pin|USB_DM_Pin|USB_DP_Pin;
 8000644:	f44f 53e8 	mov.w	r3, #7424	@ 0x1d00
 8000648:	603b      	str	r3, [r7, #0]
  GPIO_InitStruct.Mode = LL_GPIO_MODE_ALTERNATE;
 800064a:	2302      	movs	r3, #2
 800064c:	607b      	str	r3, [r7, #4]
  GPIO_InitStruct.Speed = LL_GPIO_SPEED_FREQ_VERY_HIGH;
 800064e:	2303      	movs	r3, #3
 8000650:	60bb      	str	r3, [r7, #8]
  GPIO_InitStruct.OutputType = LL_GPIO_OUTPUT_PUSHPULL;
 8000652:	2300      	movs	r3, #0
 8000654:	60fb      	str	r3, [r7, #12]
  GPIO_InitStruct.Pull = LL_GPIO_PULL_NO;
 8000656:	2300      	movs	r3, #0
 8000658:	613b      	str	r3, [r7, #16]
  GPIO_InitStruct.Alternate = LL_GPIO_AF_10;
 800065a:	230a      	movs	r3, #10
 800065c:	617b      	str	r3, [r7, #20]
  LL_GPIO_Init(GPIOA, &GPIO_InitStruct);
 800065e:	463b      	mov	r3, r7
 8000660:	4619      	mov	r1, r3
 8000662:	4816      	ldr	r0, [pc, #88]	@ (80006bc <MX_GPIO_Init+0x208>)
 8000664:	f001 fffe 	bl	8002664 <LL_GPIO_Init>

  /**/
  GPIO_InitStruct.Pin = USB_VBUS_Pin;
 8000668:	f44f 7300 	mov.w	r3, #512	@ 0x200
 800066c:	603b      	str	r3, [r7, #0]
  GPIO_InitStruct.Mode = LL_GPIO_MODE_INPUT;
 800066e:	2300      	movs	r3, #0
 8000670:	607b      	str	r3, [r7, #4]
  GPIO_InitStruct.Pull = LL_GPIO_PULL_NO;
 8000672:	2300      	movs	r3, #0
 8000674:	613b      	str	r3, [r7, #16]
  LL_GPIO_Init(USB_VBUS_GPIO_Port, &GPIO_InitStruct);
 8000676:	463b      	mov	r3, r7
 8000678:	4619      	mov	r1, r3
 800067a:	4810      	ldr	r0, [pc, #64]	@ (80006bc <MX_GPIO_Init+0x208>)
 800067c:	f001 fff2 	bl	8002664 <LL_GPIO_Init>

  /**/
  GPIO_InitStruct.Pin = RMII_TX_EN_Pin|RMII_TXD0_Pin;
 8000680:	f44f 5320 	mov.w	r3, #10240	@ 0x2800
 8000684:	603b      	str	r3, [r7, #0]
  GPIO_InitStruct.Mode = LL_GPIO_MODE_ALTERNATE;
 8000686:	2302      	movs	r3, #2
 8000688:	607b      	str	r3, [r7, #4]
  GPIO_InitStruct.Speed = LL_GPIO_SPEED_FREQ_VERY_HIGH;
 800068a:	2303      	movs	r3, #3
 800068c:	60bb      	str	r3, [r7, #8]
  GPIO_InitStruct.OutputType = LL_GPIO_OUTPUT_PUSHPULL;
 800068e:	2300      	movs	r3, #0
 8000690:	60fb      	str	r3, [r7, #12]
  GPIO_InitStruct.Pull = LL_GPIO_PULL_NO;
 8000692:	2300      	movs	r3, #0
 8000694:	613b      	str	r3, [r7, #16]
  GPIO_InitStruct.Alternate = LL_GPIO_AF_11;
 8000696:	230b      	movs	r3, #11
 8000698:	617b      	str	r3, [r7, #20]
  LL_GPIO_Init(GPIOG, &GPIO_InitStruct);
 800069a:	463b      	mov	r3, r7
 800069c:	4619      	mov	r1, r3
 800069e:	4804      	ldr	r0, [pc, #16]	@ (80006b0 <MX_GPIO_Init+0x1fc>)
 80006a0:	f001 ffe0 	bl	8002664 <LL_GPIO_Init>

}
 80006a4:	bf00      	nop
 80006a6:	3720      	adds	r7, #32
 80006a8:	46bd      	mov	sp, r7
 80006aa:	bd80      	pop	{r7, pc}
 80006ac:	40020400 	.word	0x40020400
 80006b0:	40021800 	.word	0x40021800
 80006b4:	00f00003 	.word	0x00f00003
 80006b8:	40020800 	.word	0x40020800
 80006bc:	40020000 	.word	0x40020000
 80006c0:	40020c00 	.word	0x40020c00

080006c4 <LL_RCC_HSE_EnableBypass>:
  * @brief  Enable HSE external oscillator (HSE Bypass)
  * @rmtoll CR           HSEBYP        LL_RCC_HSE_EnableBypass
  * @retval None
  */
__STATIC_INLINE void LL_RCC_HSE_EnableBypass(void)
{
 80006c4:	b480      	push	{r7}
 80006c6:	af00      	add	r7, sp, #0
  SET_BIT(RCC->CR, RCC_CR_HSEBYP);
 80006c8:	4b05      	ldr	r3, [pc, #20]	@ (80006e0 <LL_RCC_HSE_EnableBypass+0x1c>)
 80006ca:	681b      	ldr	r3, [r3, #0]
 80006cc:	4a04      	ldr	r2, [pc, #16]	@ (80006e0 <LL_RCC_HSE_EnableBypass+0x1c>)
 80006ce:	f443 2380 	orr.w	r3, r3, #262144	@ 0x40000
 80006d2:	6013      	str	r3, [r2, #0]
}
 80006d4:	bf00      	nop
 80006d6:	46bd      	mov	sp, r7
 80006d8:	f85d 7b04 	ldr.w	r7, [sp], #4
 80006dc:	4770      	bx	lr
 80006de:	bf00      	nop
 80006e0:	40023800 	.word	0x40023800

080006e4 <LL_RCC_HSE_Enable>:
  * @brief  Enable HSE crystal oscillator (HSE ON)
  * @rmtoll CR           HSEON         LL_RCC_HSE_Enable
  * @retval None
  */
__STATIC_INLINE void LL_RCC_HSE_Enable(void)
{
 80006e4:	b480      	push	{r7}
 80006e6:	af00      	add	r7, sp, #0
  SET_BIT(RCC->CR, RCC_CR_HSEON);
 80006e8:	4b05      	ldr	r3, [pc, #20]	@ (8000700 <LL_RCC_HSE_Enable+0x1c>)
 80006ea:	681b      	ldr	r3, [r3, #0]
 80006ec:	4a04      	ldr	r2, [pc, #16]	@ (8000700 <LL_RCC_HSE_Enable+0x1c>)
 80006ee:	f443 3380 	orr.w	r3, r3, #65536	@ 0x10000
 80006f2:	6013      	str	r3, [r2, #0]
}
 80006f4:	bf00      	nop
 80006f6:	46bd      	mov	sp, r7
 80006f8:	f85d 7b04 	ldr.w	r7, [sp], #4
 80006fc:	4770      	bx	lr
 80006fe:	bf00      	nop
 8000700:	40023800 	.word	0x40023800

08000704 <LL_RCC_HSE_IsReady>:
  * @brief  Check if HSE oscillator Ready
  * @rmtoll CR           HSERDY        LL_RCC_HSE_IsReady
  * @retval State of bit (1 or 0).
  */
__STATIC_INLINE uint32_t LL_RCC_HSE_IsReady(void)
{
 8000704:	b480      	push	{r7}
 8000706:	af00      	add	r7, sp, #0
  return (READ_BIT(RCC->CR, RCC_CR_HSERDY) == (RCC_CR_HSERDY));
 8000708:	4b07      	ldr	r3, [pc, #28]	@ (8000728 <LL_RCC_HSE_IsReady+0x24>)
 800070a:	681b      	ldr	r3, [r3, #0]
 800070c:	f403 3300 	and.w	r3, r3, #131072	@ 0x20000
 8000710:	f5b3 3f00 	cmp.w	r3, #131072	@ 0x20000
 8000714:	bf0c      	ite	eq
 8000716:	2301      	moveq	r3, #1
 8000718:	2300      	movne	r3, #0
 800071a:	b2db      	uxtb	r3, r3
}
 800071c:	4618      	mov	r0, r3
 800071e:	46bd      	mov	sp, r7
 8000720:	f85d 7b04 	ldr.w	r7, [sp], #4
 8000724:	4770      	bx	lr
 8000726:	bf00      	nop
 8000728:	40023800 	.word	0x40023800

0800072c <LL_RCC_SetSysClkSource>:
  *
  *         (*) value not defined in all devices.
  * @retval None
  */
__STATIC_INLINE void LL_RCC_SetSysClkSource(uint32_t Source)
{
 800072c:	b480      	push	{r7}
 800072e:	b083      	sub	sp, #12
 8000730:	af00      	add	r7, sp, #0
 8000732:	6078      	str	r0, [r7, #4]
  MODIFY_REG(RCC->CFGR, RCC_CFGR_SW, Source);
 8000734:	4b06      	ldr	r3, [pc, #24]	@ (8000750 <LL_RCC_SetSysClkSource+0x24>)
 8000736:	689b      	ldr	r3, [r3, #8]
 8000738:	f023 0203 	bic.w	r2, r3, #3
 800073c:	4904      	ldr	r1, [pc, #16]	@ (8000750 <LL_RCC_SetSysClkSource+0x24>)
 800073e:	687b      	ldr	r3, [r7, #4]
 8000740:	4313      	orrs	r3, r2
 8000742:	608b      	str	r3, [r1, #8]
}
 8000744:	bf00      	nop
 8000746:	370c      	adds	r7, #12
 8000748:	46bd      	mov	sp, r7
 800074a:	f85d 7b04 	ldr.w	r7, [sp], #4
 800074e:	4770      	bx	lr
 8000750:	40023800 	.word	0x40023800

08000754 <LL_RCC_GetSysClkSource>:
  *         @arg @ref LL_RCC_SYS_CLKSOURCE_STATUS_PLLR (*)
  *
  *         (*) value not defined in all devices.
  */
__STATIC_INLINE uint32_t LL_RCC_GetSysClkSource(void)
{
 8000754:	b480      	push	{r7}
 8000756:	af00      	add	r7, sp, #0
  return (uint32_t)(READ_BIT(RCC->CFGR, RCC_CFGR_SWS));
 8000758:	4b04      	ldr	r3, [pc, #16]	@ (800076c <LL_RCC_GetSysClkSource+0x18>)
 800075a:	689b      	ldr	r3, [r3, #8]
 800075c:	f003 030c 	and.w	r3, r3, #12
}
 8000760:	4618      	mov	r0, r3
 8000762:	46bd      	mov	sp, r7
 8000764:	f85d 7b04 	ldr.w	r7, [sp], #4
 8000768:	4770      	bx	lr
 800076a:	bf00      	nop
 800076c:	40023800 	.word	0x40023800

08000770 <LL_RCC_SetAHBPrescaler>:
  *         @arg @ref LL_RCC_SYSCLK_DIV_256
  *         @arg @ref LL_RCC_SYSCLK_DIV_512
  * @retval None
  */
__STATIC_INLINE void LL_RCC_SetAHBPrescaler(uint32_t Prescaler)
{
 8000770:	b480      	push	{r7}
 8000772:	b083      	sub	sp, #12
 8000774:	af00      	add	r7, sp, #0
 8000776:	6078      	str	r0, [r7, #4]
  MODIFY_REG(RCC->CFGR, RCC_CFGR_HPRE, Prescaler);
 8000778:	4b06      	ldr	r3, [pc, #24]	@ (8000794 <LL_RCC_SetAHBPrescaler+0x24>)
 800077a:	689b      	ldr	r3, [r3, #8]
 800077c:	f023 02f0 	bic.w	r2, r3, #240	@ 0xf0
 8000780:	4904      	ldr	r1, [pc, #16]	@ (8000794 <LL_RCC_SetAHBPrescaler+0x24>)
 8000782:	687b      	ldr	r3, [r7, #4]
 8000784:	4313      	orrs	r3, r2
 8000786:	608b      	str	r3, [r1, #8]
}
 8000788:	bf00      	nop
 800078a:	370c      	adds	r7, #12
 800078c:	46bd      	mov	sp, r7
 800078e:	f85d 7b04 	ldr.w	r7, [sp], #4
 8000792:	4770      	bx	lr
 8000794:	40023800 	.word	0x40023800

08000798 <LL_RCC_SetAPB1Prescaler>:
  *         @arg @ref LL_RCC_APB1_DIV_8
  *         @arg @ref LL_RCC_APB1_DIV_16
  * @retval None
  */
__STATIC_INLINE void LL_RCC_SetAPB1Prescaler(uint32_t Prescaler)
{
 8000798:	b480      	push	{r7}
 800079a:	b083      	sub	sp, #12
 800079c:	af00      	add	r7, sp, #0
 800079e:	6078      	str	r0, [r7, #4]
  MODIFY_REG(RCC->CFGR, RCC_CFGR_PPRE1, Prescaler);
 80007a0:	4b06      	ldr	r3, [pc, #24]	@ (80007bc <LL_RCC_SetAPB1Prescaler+0x24>)
 80007a2:	689b      	ldr	r3, [r3, #8]
 80007a4:	f423 52e0 	bic.w	r2, r3, #7168	@ 0x1c00
 80007a8:	4904      	ldr	r1, [pc, #16]	@ (80007bc <LL_RCC_SetAPB1Prescaler+0x24>)
 80007aa:	687b      	ldr	r3, [r7, #4]
 80007ac:	4313      	orrs	r3, r2
 80007ae:	608b      	str	r3, [r1, #8]
}
 80007b0:	bf00      	nop
 80007b2:	370c      	adds	r7, #12
 80007b4:	46bd      	mov	sp, r7
 80007b6:	f85d 7b04 	ldr.w	r7, [sp], #4
 80007ba:	4770      	bx	lr
 80007bc:	40023800 	.word	0x40023800

080007c0 <LL_RCC_SetAPB2Prescaler>:
  *         @arg @ref LL_RCC_APB2_DIV_8
  *         @arg @ref LL_RCC_APB2_DIV_16
  * @retval None
  */
__STATIC_INLINE void LL_RCC_SetAPB2Prescaler(uint32_t Prescaler)
{
 80007c0:	b480      	push	{r7}
 80007c2:	b083      	sub	sp, #12
 80007c4:	af00      	add	r7, sp, #0
 80007c6:	6078      	str	r0, [r7, #4]
  MODIFY_REG(RCC->CFGR, RCC_CFGR_PPRE2, Prescaler);
 80007c8:	4b06      	ldr	r3, [pc, #24]	@ (80007e4 <LL_RCC_SetAPB2Prescaler+0x24>)
 80007ca:	689b      	ldr	r3, [r3, #8]
 80007cc:	f423 4260 	bic.w	r2, r3, #57344	@ 0xe000
 80007d0:	4904      	ldr	r1, [pc, #16]	@ (80007e4 <LL_RCC_SetAPB2Prescaler+0x24>)
 80007d2:	687b      	ldr	r3, [r7, #4]
 80007d4:	4313      	orrs	r3, r2
 80007d6:	608b      	str	r3, [r1, #8]
}
 80007d8:	bf00      	nop
 80007da:	370c      	adds	r7, #12
 80007dc:	46bd      	mov	sp, r7
 80007de:	f85d 7b04 	ldr.w	r7, [sp], #4
 80007e2:	4770      	bx	lr
 80007e4:	40023800 	.word	0x40023800

080007e8 <LL_RCC_SetTIMPrescaler>:
  *         @arg @ref LL_RCC_TIM_PRESCALER_TWICE
  *         @arg @ref LL_RCC_TIM_PRESCALER_FOUR_TIMES
  * @retval None
  */
__STATIC_INLINE void LL_RCC_SetTIMPrescaler(uint32_t Prescaler)
{
 80007e8:	b480      	push	{r7}
 80007ea:	b083      	sub	sp, #12
 80007ec:	af00      	add	r7, sp, #0
 80007ee:	6078      	str	r0, [r7, #4]
  MODIFY_REG(RCC->DCKCFGR, RCC_DCKCFGR_TIMPRE, Prescaler);
 80007f0:	4b07      	ldr	r3, [pc, #28]	@ (8000810 <LL_RCC_SetTIMPrescaler+0x28>)
 80007f2:	f8d3 308c 	ldr.w	r3, [r3, #140]	@ 0x8c
 80007f6:	f023 7280 	bic.w	r2, r3, #16777216	@ 0x1000000
 80007fa:	4905      	ldr	r1, [pc, #20]	@ (8000810 <LL_RCC_SetTIMPrescaler+0x28>)
 80007fc:	687b      	ldr	r3, [r7, #4]
 80007fe:	4313      	orrs	r3, r2
 8000800:	f8c1 308c 	str.w	r3, [r1, #140]	@ 0x8c
}
 8000804:	bf00      	nop
 8000806:	370c      	adds	r7, #12
 8000808:	46bd      	mov	sp, r7
 800080a:	f85d 7b04 	ldr.w	r7, [sp], #4
 800080e:	4770      	bx	lr
 8000810:	40023800 	.word	0x40023800

08000814 <LL_RCC_PLL_Enable>:
  * @brief  Enable PLL
  * @rmtoll CR           PLLON         LL_RCC_PLL_Enable
  * @retval None
  */
__STATIC_INLINE void LL_RCC_PLL_Enable(void)
{
 8000814:	b480      	push	{r7}
 8000816:	af00      	add	r7, sp, #0
  SET_BIT(RCC->CR, RCC_CR_PLLON);
 8000818:	4b05      	ldr	r3, [pc, #20]	@ (8000830 <LL_RCC_PLL_Enable+0x1c>)
 800081a:	681b      	ldr	r3, [r3, #0]
 800081c:	4a04      	ldr	r2, [pc, #16]	@ (8000830 <LL_RCC_PLL_Enable+0x1c>)
 800081e:	f043 7380 	orr.w	r3, r3, #16777216	@ 0x1000000
 8000822:	6013      	str	r3, [r2, #0]
}
 8000824:	bf00      	nop
 8000826:	46bd      	mov	sp, r7
 8000828:	f85d 7b04 	ldr.w	r7, [sp], #4
 800082c:	4770      	bx	lr
 800082e:	bf00      	nop
 8000830:	40023800 	.word	0x40023800

08000834 <LL_RCC_PLL_IsReady>:
  * @brief  Check if PLL Ready
  * @rmtoll CR           PLLRDY        LL_RCC_PLL_IsReady
  * @retval State of bit (1 or 0).
  */
__STATIC_INLINE uint32_t LL_RCC_PLL_IsReady(void)
{
 8000834:	b480      	push	{r7}
 8000836:	af00      	add	r7, sp, #0
  return (READ_BIT(RCC->CR, RCC_CR_PLLRDY) == (RCC_CR_PLLRDY));
 8000838:	4b07      	ldr	r3, [pc, #28]	@ (8000858 <LL_RCC_PLL_IsReady+0x24>)
 800083a:	681b      	ldr	r3, [r3, #0]
 800083c:	f003 7300 	and.w	r3, r3, #33554432	@ 0x2000000
 8000840:	f1b3 7f00 	cmp.w	r3, #33554432	@ 0x2000000
 8000844:	bf0c      	ite	eq
 8000846:	2301      	moveq	r3, #1
 8000848:	2300      	movne	r3, #0
 800084a:	b2db      	uxtb	r3, r3
}
 800084c:	4618      	mov	r0, r3
 800084e:	46bd      	mov	sp, r7
 8000850:	f85d 7b04 	ldr.w	r7, [sp], #4
 8000854:	4770      	bx	lr
 8000856:	bf00      	nop
 8000858:	40023800 	.word	0x40023800

0800085c <LL_RCC_PLL_ConfigDomain_SYS>:
  *
  *         (*) value not defined in all devices.
  * @retval None
  */
__STATIC_INLINE void LL_RCC_PLL_ConfigDomain_SYS(uint32_t Source, uint32_t PLLM, uint32_t PLLN, uint32_t PLLP_R)
{
 800085c:	b480      	push	{r7}
 800085e:	b085      	sub	sp, #20
 8000860:	af00      	add	r7, sp, #0
 8000862:	60f8      	str	r0, [r7, #12]
 8000864:	60b9      	str	r1, [r7, #8]
 8000866:	607a      	str	r2, [r7, #4]
 8000868:	603b      	str	r3, [r7, #0]
  MODIFY_REG(RCC->PLLCFGR, RCC_PLLCFGR_PLLSRC | RCC_PLLCFGR_PLLM | RCC_PLLCFGR_PLLN,
 800086a:	4b0d      	ldr	r3, [pc, #52]	@ (80008a0 <LL_RCC_PLL_ConfigDomain_SYS+0x44>)
 800086c:	685a      	ldr	r2, [r3, #4]
 800086e:	4b0d      	ldr	r3, [pc, #52]	@ (80008a4 <LL_RCC_PLL_ConfigDomain_SYS+0x48>)
 8000870:	4013      	ands	r3, r2
 8000872:	68f9      	ldr	r1, [r7, #12]
 8000874:	68ba      	ldr	r2, [r7, #8]
 8000876:	4311      	orrs	r1, r2
 8000878:	687a      	ldr	r2, [r7, #4]
 800087a:	0192      	lsls	r2, r2, #6
 800087c:	430a      	orrs	r2, r1
 800087e:	4908      	ldr	r1, [pc, #32]	@ (80008a0 <LL_RCC_PLL_ConfigDomain_SYS+0x44>)
 8000880:	4313      	orrs	r3, r2
 8000882:	604b      	str	r3, [r1, #4]
             Source | PLLM | PLLN << RCC_PLLCFGR_PLLN_Pos);
  MODIFY_REG(RCC->PLLCFGR, RCC_PLLCFGR_PLLP, PLLP_R);
 8000884:	4b06      	ldr	r3, [pc, #24]	@ (80008a0 <LL_RCC_PLL_ConfigDomain_SYS+0x44>)
 8000886:	685b      	ldr	r3, [r3, #4]
 8000888:	f423 3240 	bic.w	r2, r3, #196608	@ 0x30000
 800088c:	4904      	ldr	r1, [pc, #16]	@ (80008a0 <LL_RCC_PLL_ConfigDomain_SYS+0x44>)
 800088e:	683b      	ldr	r3, [r7, #0]
 8000890:	4313      	orrs	r3, r2
 8000892:	604b      	str	r3, [r1, #4]
#if defined(RCC_PLLR_SYSCLK_SUPPORT)
  MODIFY_REG(RCC->PLLCFGR, RCC_PLLCFGR_PLLR, PLLP_R);
#endif /* RCC_PLLR_SYSCLK_SUPPORT */
}
 8000894:	bf00      	nop
 8000896:	3714      	adds	r7, #20
 8000898:	46bd      	mov	sp, r7
 800089a:	f85d 7b04 	ldr.w	r7, [sp], #4
 800089e:	4770      	bx	lr
 80008a0:	40023800 	.word	0x40023800
 80008a4:	ffbf8000 	.word	0xffbf8000

080008a8 <LL_FLASH_SetLatency>:
  *         @arg @ref LL_FLASH_LATENCY_14
  *         @arg @ref LL_FLASH_LATENCY_15
  * @retval None
  */
__STATIC_INLINE void LL_FLASH_SetLatency(uint32_t Latency)
{
 80008a8:	b480      	push	{r7}
 80008aa:	b083      	sub	sp, #12
 80008ac:	af00      	add	r7, sp, #0
 80008ae:	6078      	str	r0, [r7, #4]
  MODIFY_REG(FLASH->ACR, FLASH_ACR_LATENCY, Latency);
 80008b0:	4b06      	ldr	r3, [pc, #24]	@ (80008cc <LL_FLASH_SetLatency+0x24>)
 80008b2:	681b      	ldr	r3, [r3, #0]
 80008b4:	f023 020f 	bic.w	r2, r3, #15
 80008b8:	4904      	ldr	r1, [pc, #16]	@ (80008cc <LL_FLASH_SetLatency+0x24>)
 80008ba:	687b      	ldr	r3, [r7, #4]
 80008bc:	4313      	orrs	r3, r2
 80008be:	600b      	str	r3, [r1, #0]
}
 80008c0:	bf00      	nop
 80008c2:	370c      	adds	r7, #12
 80008c4:	46bd      	mov	sp, r7
 80008c6:	f85d 7b04 	ldr.w	r7, [sp], #4
 80008ca:	4770      	bx	lr
 80008cc:	40023c00 	.word	0x40023c00

080008d0 <LL_FLASH_GetLatency>:
  *         @arg @ref LL_FLASH_LATENCY_13
  *         @arg @ref LL_FLASH_LATENCY_14
  *         @arg @ref LL_FLASH_LATENCY_15
  */
__STATIC_INLINE uint32_t LL_FLASH_GetLatency(void)
{
 80008d0:	b480      	push	{r7}
 80008d2:	af00      	add	r7, sp, #0
  return (uint32_t)(READ_BIT(FLASH->ACR, FLASH_ACR_LATENCY));
 80008d4:	4b04      	ldr	r3, [pc, #16]	@ (80008e8 <LL_FLASH_GetLatency+0x18>)
 80008d6:	681b      	ldr	r3, [r3, #0]
 80008d8:	f003 030f 	and.w	r3, r3, #15
}
 80008dc:	4618      	mov	r0, r3
 80008de:	46bd      	mov	sp, r7
 80008e0:	f85d 7b04 	ldr.w	r7, [sp], #4
 80008e4:	4770      	bx	lr
 80008e6:	bf00      	nop
 80008e8:	40023c00 	.word	0x40023c00

080008ec <LL_PWR_DisableOverDriveMode>:
  * @brief  Disable Over drive Mode
  * @rmtoll CR    ODEN       LL_PWR_DisableOverDriveMode
  * @retval None
  */
__STATIC_INLINE void LL_PWR_DisableOverDriveMode(void)
{
 80008ec:	b480      	push	{r7}
 80008ee:	af00      	add	r7, sp, #0
  CLEAR_BIT(PWR->CR, PWR_CR_ODEN);
 80008f0:	4b05      	ldr	r3, [pc, #20]	@ (8000908 <LL_PWR_DisableOverDriveMode+0x1c>)
 80008f2:	681b      	ldr	r3, [r3, #0]
 80008f4:	4a04      	ldr	r2, [pc, #16]	@ (8000908 <LL_PWR_DisableOverDriveMode+0x1c>)
 80008f6:	f423 3380 	bic.w	r3, r3, #65536	@ 0x10000
 80008fa:	6013      	str	r3, [r2, #0]
}
 80008fc:	bf00      	nop
 80008fe:	46bd      	mov	sp, r7
 8000900:	f85d 7b04 	ldr.w	r7, [sp], #4
 8000904:	4770      	bx	lr
 8000906:	bf00      	nop
 8000908:	40007000 	.word	0x40007000

0800090c <LL_PWR_SetRegulVoltageScaling>:
  *         @arg @ref LL_PWR_REGU_VOLTAGE_SCALE3
  *         (*) LL_PWR_REGU_VOLTAGE_SCALE1 is not available for STM32F401xx devices
  * @retval None
  */
__STATIC_INLINE void LL_PWR_SetRegulVoltageScaling(uint32_t VoltageScaling)
{
 800090c:	b480      	push	{r7}
 800090e:	b083      	sub	sp, #12
 8000910:	af00      	add	r7, sp, #0
 8000912:	6078      	str	r0, [r7, #4]
  MODIFY_REG(PWR->CR, PWR_CR_VOS, VoltageScaling);
 8000914:	4b06      	ldr	r3, [pc, #24]	@ (8000930 <LL_PWR_SetRegulVoltageScaling+0x24>)
 8000916:	681b      	ldr	r3, [r3, #0]
 8000918:	f423 4240 	bic.w	r2, r3, #49152	@ 0xc000
 800091c:	4904      	ldr	r1, [pc, #16]	@ (8000930 <LL_PWR_SetRegulVoltageScaling+0x24>)
 800091e:	687b      	ldr	r3, [r7, #4]
 8000920:	4313      	orrs	r3, r2
 8000922:	600b      	str	r3, [r1, #0]
}
 8000924:	bf00      	nop
 8000926:	370c      	adds	r7, #12
 8000928:	46bd      	mov	sp, r7
 800092a:	f85d 7b04 	ldr.w	r7, [sp], #4
 800092e:	4770      	bx	lr
 8000930:	40007000 	.word	0x40007000

08000934 <LL_PWR_IsActiveFlag_VOS>:
  * @brief  Indicate whether the Regulator is ready in the selected voltage range or if its output voltage is still changing to the required voltage level
  * @rmtoll CSR   VOS       LL_PWR_IsActiveFlag_VOS
  * @retval State of bit (1 or 0).
  */
__STATIC_INLINE uint32_t LL_PWR_IsActiveFlag_VOS(void)
{
 8000934:	b480      	push	{r7}
 8000936:	af00      	add	r7, sp, #0
  return (READ_BIT(PWR->CSR, LL_PWR_CSR_VOS) == (LL_PWR_CSR_VOS));
 8000938:	4b07      	ldr	r3, [pc, #28]	@ (8000958 <LL_PWR_IsActiveFlag_VOS+0x24>)
 800093a:	685b      	ldr	r3, [r3, #4]
 800093c:	f403 4380 	and.w	r3, r3, #16384	@ 0x4000
 8000940:	f5b3 4f80 	cmp.w	r3, #16384	@ 0x4000
 8000944:	bf0c      	ite	eq
 8000946:	2301      	moveq	r3, #1
 8000948:	2300      	movne	r3, #0
 800094a:	b2db      	uxtb	r3, r3
}
 800094c:	4618      	mov	r0, r3
 800094e:	46bd      	mov	sp, r7
 8000950:	f85d 7b04 	ldr.w	r7, [sp], #4
 8000954:	4770      	bx	lr
 8000956:	bf00      	nop
 8000958:	40007000 	.word	0x40007000

0800095c <LL_TIM_EnableCounter>:
{
 800095c:	b480      	push	{r7}
 800095e:	b083      	sub	sp, #12
 8000960:	af00      	add	r7, sp, #0
 8000962:	6078      	str	r0, [r7, #4]
  SET_BIT(TIMx->CR1, TIM_CR1_CEN);
 8000964:	687b      	ldr	r3, [r7, #4]
 8000966:	681b      	ldr	r3, [r3, #0]
 8000968:	f043 0201 	orr.w	r2, r3, #1
 800096c:	687b      	ldr	r3, [r7, #4]
 800096e:	601a      	str	r2, [r3, #0]
}
 8000970:	bf00      	nop
 8000972:	370c      	adds	r7, #12
 8000974:	46bd      	mov	sp, r7
 8000976:	f85d 7b04 	ldr.w	r7, [sp], #4
 800097a:	4770      	bx	lr

0800097c <LL_TIM_CC_EnableChannel>:
{
 800097c:	b480      	push	{r7}
 800097e:	b083      	sub	sp, #12
 8000980:	af00      	add	r7, sp, #0
 8000982:	6078      	str	r0, [r7, #4]
 8000984:	6039      	str	r1, [r7, #0]
  SET_BIT(TIMx->CCER, Channels);
 8000986:	687b      	ldr	r3, [r7, #4]
 8000988:	6a1a      	ldr	r2, [r3, #32]
 800098a:	683b      	ldr	r3, [r7, #0]
 800098c:	431a      	orrs	r2, r3
 800098e:	687b      	ldr	r3, [r7, #4]
 8000990:	621a      	str	r2, [r3, #32]
}
 8000992:	bf00      	nop
 8000994:	370c      	adds	r7, #12
 8000996:	46bd      	mov	sp, r7
 8000998:	f85d 7b04 	ldr.w	r7, [sp], #4
 800099c:	4770      	bx	lr

0800099e <LL_TIM_ClearFlag_UPDATE>:
{
 800099e:	b480      	push	{r7}
 80009a0:	b083      	sub	sp, #12
 80009a2:	af00      	add	r7, sp, #0
 80009a4:	6078      	str	r0, [r7, #4]
  WRITE_REG(TIMx->SR, ~(TIM_SR_UIF));
 80009a6:	687b      	ldr	r3, [r7, #4]
 80009a8:	f06f 0201 	mvn.w	r2, #1
 80009ac:	611a      	str	r2, [r3, #16]
}
 80009ae:	bf00      	nop
 80009b0:	370c      	adds	r7, #12
 80009b2:	46bd      	mov	sp, r7
 80009b4:	f85d 7b04 	ldr.w	r7, [sp], #4
 80009b8:	4770      	bx	lr

080009ba <LL_TIM_EnableIT_UPDATE>:
{
 80009ba:	b480      	push	{r7}
 80009bc:	b083      	sub	sp, #12
 80009be:	af00      	add	r7, sp, #0
 80009c0:	6078      	str	r0, [r7, #4]
  SET_BIT(TIMx->DIER, TIM_DIER_UIE);
 80009c2:	687b      	ldr	r3, [r7, #4]
 80009c4:	68db      	ldr	r3, [r3, #12]
 80009c6:	f043 0201 	orr.w	r2, r3, #1
 80009ca:	687b      	ldr	r3, [r7, #4]
 80009cc:	60da      	str	r2, [r3, #12]
}
 80009ce:	bf00      	nop
 80009d0:	370c      	adds	r7, #12
 80009d2:	46bd      	mov	sp, r7
 80009d4:	f85d 7b04 	ldr.w	r7, [sp], #4
 80009d8:	4770      	bx	lr

080009da <LL_TIM_GenerateEvent_UPDATE>:
{
 80009da:	b480      	push	{r7}
 80009dc:	b083      	sub	sp, #12
 80009de:	af00      	add	r7, sp, #0
 80009e0:	6078      	str	r0, [r7, #4]
  SET_BIT(TIMx->EGR, TIM_EGR_UG);
 80009e2:	687b      	ldr	r3, [r7, #4]
 80009e4:	695b      	ldr	r3, [r3, #20]
 80009e6:	f043 0201 	orr.w	r2, r3, #1
 80009ea:	687b      	ldr	r3, [r7, #4]
 80009ec:	615a      	str	r2, [r3, #20]
}
 80009ee:	bf00      	nop
 80009f0:	370c      	adds	r7, #12
 80009f2:	46bd      	mov	sp, r7
 80009f4:	f85d 7b04 	ldr.w	r7, [sp], #4
 80009f8:	4770      	bx	lr
	...

080009fc <main>:
/**
  * @brief  The application entry point.
  * @retval int
  */
int main(void)
{
 80009fc:	b580      	push	{r7, lr}
 80009fe:	af00      	add	r7, sp, #0
  /* USER CODE END 1 */

  /* MCU Configuration--------------------------------------------------------*/

  /* Reset of all peripherals, Initializes the Flash interface and the Systick. */
  HAL_Init();
 8000a00:	f000 ffb0 	bl	8001964 <HAL_Init>
  /* USER CODE BEGIN Init */

  /* USER CODE END Init */

  /* Configure the system clock */
  SystemClock_Config();
 8000a04:	f000 f83a 	bl	8000a7c <SystemClock_Config>
  /* USER CODE BEGIN SysInit */

  /* USER CODE END SysInit */

  /* Initialize all configured peripherals */
  MX_GPIO_Init();
 8000a08:	f7ff fd54 	bl	80004b4 <MX_GPIO_Init>
  MX_TIM1_Init();
 8000a0c:	f000 fcc4 	bl	8001398 <MX_TIM1_Init>
  MX_TIM2_Init();
 8000a10:	f000 fd50 	bl	80014b4 <MX_TIM2_Init>
  MX_TIM3_Init();
 8000a14:	f000 fdd6 	bl	80015c4 <MX_TIM3_Init>
  MX_TIM6_Init();
 8000a18:	f000 ff1a 	bl	8001850 <MX_TIM6_Init>
  MX_TIM4_Init();
 8000a1c:	f000 fe50 	bl	80016c0 <MX_TIM4_Init>
  MX_TIM5_Init();
 8000a20:	f000 fec8 	bl	80017b4 <MX_TIM5_Init>
  /* USER CODE BEGIN 2 */

  LL_TIM_EnableIT_UPDATE(TIM6);
 8000a24:	4813      	ldr	r0, [pc, #76]	@ (8000a74 <main+0x78>)
 8000a26:	f7ff ffc8 	bl	80009ba <LL_TIM_EnableIT_UPDATE>

  LL_TIM_GenerateEvent_UPDATE(TIM2);
 8000a2a:	f04f 4080 	mov.w	r0, #1073741824	@ 0x40000000
 8000a2e:	f7ff ffd4 	bl	80009da <LL_TIM_GenerateEvent_UPDATE>
  LL_TIM_GenerateEvent_UPDATE(TIM3);
 8000a32:	4811      	ldr	r0, [pc, #68]	@ (8000a78 <main+0x7c>)
 8000a34:	f7ff ffd1 	bl	80009da <LL_TIM_GenerateEvent_UPDATE>

  LL_TIM_ClearFlag_UPDATE(TIM2);
 8000a38:	f04f 4080 	mov.w	r0, #1073741824	@ 0x40000000
 8000a3c:	f7ff ffaf 	bl	800099e <LL_TIM_ClearFlag_UPDATE>
  LL_TIM_ClearFlag_UPDATE(TIM3);
 8000a40:	480d      	ldr	r0, [pc, #52]	@ (8000a78 <main+0x7c>)
 8000a42:	f7ff ffac 	bl	800099e <LL_TIM_ClearFlag_UPDATE>

  LL_TIM_CC_EnableChannel(TIM2, LL_TIM_CHANNEL_CH1);
 8000a46:	2101      	movs	r1, #1
 8000a48:	f04f 4080 	mov.w	r0, #1073741824	@ 0x40000000
 8000a4c:	f7ff ff96 	bl	800097c <LL_TIM_CC_EnableChannel>
  LL_TIM_CC_EnableChannel(TIM2, LL_TIM_CHANNEL_CH2);
 8000a50:	2110      	movs	r1, #16
 8000a52:	f04f 4080 	mov.w	r0, #1073741824	@ 0x40000000
 8000a56:	f7ff ff91 	bl	800097c <LL_TIM_CC_EnableChannel>

  LL_TIM_CC_EnableChannel(TIM3, LL_TIM_CHANNEL_CH1);
 8000a5a:	2101      	movs	r1, #1
 8000a5c:	4806      	ldr	r0, [pc, #24]	@ (8000a78 <main+0x7c>)
 8000a5e:	f7ff ff8d 	bl	800097c <LL_TIM_CC_EnableChannel>

  LL_TIM_EnableCounter(TIM2);
 8000a62:	f04f 4080 	mov.w	r0, #1073741824	@ 0x40000000
 8000a66:	f7ff ff79 	bl	800095c <LL_TIM_EnableCounter>


  PCVs_Start();
 8000a6a:	f7ff fc29 	bl	80002c0 <PCVs_Start>

  /* USER CODE END 2 */

  /* Infinite loop */
  /* USER CODE BEGIN WHILE */
  while (1)
 8000a6e:	bf00      	nop
 8000a70:	e7fd      	b.n	8000a6e <main+0x72>
 8000a72:	bf00      	nop
 8000a74:	40001000 	.word	0x40001000
 8000a78:	40000400 	.word	0x40000400

08000a7c <SystemClock_Config>:
/**
  * @brief System Clock Configuration
  * @retval None
  */
void SystemClock_Config(void)
{
 8000a7c:	b580      	push	{r7, lr}
 8000a7e:	af00      	add	r7, sp, #0
  LL_FLASH_SetLatency(LL_FLASH_LATENCY_2);
 8000a80:	2002      	movs	r0, #2
 8000a82:	f7ff ff11 	bl	80008a8 <LL_FLASH_SetLatency>
  while(LL_FLASH_GetLatency()!= LL_FLASH_LATENCY_2)
 8000a86:	bf00      	nop
 8000a88:	f7ff ff22 	bl	80008d0 <LL_FLASH_GetLatency>
 8000a8c:	4603      	mov	r3, r0
 8000a8e:	2b02      	cmp	r3, #2
 8000a90:	d1fa      	bne.n	8000a88 <SystemClock_Config+0xc>
  {
  }
  LL_PWR_SetRegulVoltageScaling(LL_PWR_REGU_VOLTAGE_SCALE3);
 8000a92:	f44f 4080 	mov.w	r0, #16384	@ 0x4000
 8000a96:	f7ff ff39 	bl	800090c <LL_PWR_SetRegulVoltageScaling>
  LL_PWR_DisableOverDriveMode();
 8000a9a:	f7ff ff27 	bl	80008ec <LL_PWR_DisableOverDriveMode>
  LL_RCC_HSE_EnableBypass();
 8000a9e:	f7ff fe11 	bl	80006c4 <LL_RCC_HSE_EnableBypass>
  LL_RCC_HSE_Enable();
 8000aa2:	f7ff fe1f 	bl	80006e4 <LL_RCC_HSE_Enable>

   /* Wait till HSE is ready */
  while(LL_RCC_HSE_IsReady() != 1)
 8000aa6:	bf00      	nop
 8000aa8:	f7ff fe2c 	bl	8000704 <LL_RCC_HSE_IsReady>
 8000aac:	4603      	mov	r3, r0
 8000aae:	2b01      	cmp	r3, #1
 8000ab0:	d1fa      	bne.n	8000aa8 <SystemClock_Config+0x2c>
  {

  }
  LL_RCC_PLL_ConfigDomain_SYS(LL_RCC_PLLSOURCE_HSE, LL_RCC_PLLM_DIV_4, 80, LL_RCC_PLLP_DIV_2);
 8000ab2:	2300      	movs	r3, #0
 8000ab4:	2250      	movs	r2, #80	@ 0x50
 8000ab6:	2104      	movs	r1, #4
 8000ab8:	f44f 0080 	mov.w	r0, #4194304	@ 0x400000
 8000abc:	f7ff fece 	bl	800085c <LL_RCC_PLL_ConfigDomain_SYS>
  LL_RCC_PLL_Enable();
 8000ac0:	f7ff fea8 	bl	8000814 <LL_RCC_PLL_Enable>

   /* Wait till PLL is ready */
  while(LL_RCC_PLL_IsReady() != 1)
 8000ac4:	bf00      	nop
 8000ac6:	f7ff feb5 	bl	8000834 <LL_RCC_PLL_IsReady>
 8000aca:	4603      	mov	r3, r0
 8000acc:	2b01      	cmp	r3, #1
 8000ace:	d1fa      	bne.n	8000ac6 <SystemClock_Config+0x4a>
  {

  }
  while (LL_PWR_IsActiveFlag_VOS() == 0)
 8000ad0:	bf00      	nop
 8000ad2:	f7ff ff2f 	bl	8000934 <LL_PWR_IsActiveFlag_VOS>
 8000ad6:	4603      	mov	r3, r0
 8000ad8:	2b00      	cmp	r3, #0
 8000ada:	d0fa      	beq.n	8000ad2 <SystemClock_Config+0x56>
  {
  }
  LL_RCC_SetAHBPrescaler(LL_RCC_SYSCLK_DIV_1);
 8000adc:	2000      	movs	r0, #0
 8000ade:	f7ff fe47 	bl	8000770 <LL_RCC_SetAHBPrescaler>
  LL_RCC_SetAPB1Prescaler(LL_RCC_APB1_DIV_2);
 8000ae2:	f44f 5080 	mov.w	r0, #4096	@ 0x1000
 8000ae6:	f7ff fe57 	bl	8000798 <LL_RCC_SetAPB1Prescaler>
  LL_RCC_SetAPB2Prescaler(LL_RCC_APB2_DIV_2);
 8000aea:	f44f 4000 	mov.w	r0, #32768	@ 0x8000
 8000aee:	f7ff fe67 	bl	80007c0 <LL_RCC_SetAPB2Prescaler>
  LL_RCC_SetSysClkSource(LL_RCC_SYS_CLKSOURCE_PLL);
 8000af2:	2002      	movs	r0, #2
 8000af4:	f7ff fe1a 	bl	800072c <LL_RCC_SetSysClkSource>

   /* Wait till System clock is ready */
  while(LL_RCC_GetSysClkSource() != LL_RCC_SYS_CLKSOURCE_STATUS_PLL)
 8000af8:	bf00      	nop
 8000afa:	f7ff fe2b 	bl	8000754 <LL_RCC_GetSysClkSource>
 8000afe:	4603      	mov	r3, r0
 8000b00:	2b08      	cmp	r3, #8
 8000b02:	d1fa      	bne.n	8000afa <SystemClock_Config+0x7e>
  {

  }
  LL_SetSystemCoreClock(80000000);
 8000b04:	4807      	ldr	r0, [pc, #28]	@ (8000b24 <SystemClock_Config+0xa8>)
 8000b06:	f002 f921 	bl	8002d4c <LL_SetSystemCoreClock>

   /* Update the time base */
  if (HAL_InitTick (TICK_INT_PRIORITY) != HAL_OK)
 8000b0a:	2000      	movs	r0, #0
 8000b0c:	f000 ff4c 	bl	80019a8 <HAL_InitTick>
 8000b10:	4603      	mov	r3, r0
 8000b12:	2b00      	cmp	r3, #0
 8000b14:	d001      	beq.n	8000b1a <SystemClock_Config+0x9e>
  {
    Error_Handler();
 8000b16:	f000 f807 	bl	8000b28 <Error_Handler>
  }
  LL_RCC_SetTIMPrescaler(LL_RCC_TIM_PRESCALER_TWICE);
 8000b1a:	2000      	movs	r0, #0
 8000b1c:	f7ff fe64 	bl	80007e8 <LL_RCC_SetTIMPrescaler>
}
 8000b20:	bf00      	nop
 8000b22:	bd80      	pop	{r7, pc}
 8000b24:	04c4b400 	.word	0x04c4b400

08000b28 <Error_Handler>:
/**
  * @brief  This function is executed in case of error occurrence.
  * @retval None
  */
void Error_Handler(void)
{
 8000b28:	b480      	push	{r7}
 8000b2a:	af00      	add	r7, sp, #0
  \details Disables IRQ interrupts by setting special-purpose register PRIMASK.
           Can only be executed in Privileged modes.
 */
__STATIC_FORCEINLINE void __disable_irq(void)
{
  __ASM volatile ("cpsid i" : : : "memory");
 8000b2c:	b672      	cpsid	i
}
 8000b2e:	bf00      	nop
  /* USER CODE BEGIN Error_Handler_Debug */
  /* User can add his own implementation to report the HAL error return state */
  __disable_irq();
  while (1)
 8000b30:	bf00      	nop
 8000b32:	e7fd      	b.n	8000b30 <Error_Handler+0x8>

08000b34 <HAL_MspInit>:
/* USER CODE END 0 */
/**
  * Initializes the Global MSP.
  */
void HAL_MspInit(void)
{
 8000b34:	b480      	push	{r7}
 8000b36:	b083      	sub	sp, #12
 8000b38:	af00      	add	r7, sp, #0

  /* USER CODE BEGIN MspInit 0 */

  /* USER CODE END MspInit 0 */

  __HAL_RCC_SYSCFG_CLK_ENABLE();
 8000b3a:	2300      	movs	r3, #0
 8000b3c:	607b      	str	r3, [r7, #4]
 8000b3e:	4b10      	ldr	r3, [pc, #64]	@ (8000b80 <HAL_MspInit+0x4c>)
 8000b40:	6c5b      	ldr	r3, [r3, #68]	@ 0x44
 8000b42:	4a0f      	ldr	r2, [pc, #60]	@ (8000b80 <HAL_MspInit+0x4c>)
 8000b44:	f443 4380 	orr.w	r3, r3, #16384	@ 0x4000
 8000b48:	6453      	str	r3, [r2, #68]	@ 0x44
 8000b4a:	4b0d      	ldr	r3, [pc, #52]	@ (8000b80 <HAL_MspInit+0x4c>)
 8000b4c:	6c5b      	ldr	r3, [r3, #68]	@ 0x44
 8000b4e:	f403 4380 	and.w	r3, r3, #16384	@ 0x4000
 8000b52:	607b      	str	r3, [r7, #4]
 8000b54:	687b      	ldr	r3, [r7, #4]
  __HAL_RCC_PWR_CLK_ENABLE();
 8000b56:	2300      	movs	r3, #0
 8000b58:	603b      	str	r3, [r7, #0]
 8000b5a:	4b09      	ldr	r3, [pc, #36]	@ (8000b80 <HAL_MspInit+0x4c>)
 8000b5c:	6c1b      	ldr	r3, [r3, #64]	@ 0x40
 8000b5e:	4a08      	ldr	r2, [pc, #32]	@ (8000b80 <HAL_MspInit+0x4c>)
 8000b60:	f043 5380 	orr.w	r3, r3, #268435456	@ 0x10000000
 8000b64:	6413      	str	r3, [r2, #64]	@ 0x40
 8000b66:	4b06      	ldr	r3, [pc, #24]	@ (8000b80 <HAL_MspInit+0x4c>)
 8000b68:	6c1b      	ldr	r3, [r3, #64]	@ 0x40
 8000b6a:	f003 5380 	and.w	r3, r3, #268435456	@ 0x10000000
 8000b6e:	603b      	str	r3, [r7, #0]
 8000b70:	683b      	ldr	r3, [r7, #0]
  /* System interrupt init*/

  /* USER CODE BEGIN MspInit 1 */

  /* USER CODE END MspInit 1 */
}
 8000b72:	bf00      	nop
 8000b74:	370c      	adds	r7, #12
 8000b76:	46bd      	mov	sp, r7
 8000b78:	f85d 7b04 	ldr.w	r7, [sp], #4
 8000b7c:	4770      	bx	lr
 8000b7e:	bf00      	nop
 8000b80:	40023800 	.word	0x40023800

08000b84 <LL_TIM_ClearFlag_UPDATE>:
{
 8000b84:	b480      	push	{r7}
 8000b86:	b083      	sub	sp, #12
 8000b88:	af00      	add	r7, sp, #0
 8000b8a:	6078      	str	r0, [r7, #4]
  WRITE_REG(TIMx->SR, ~(TIM_SR_UIF));
 8000b8c:	687b      	ldr	r3, [r7, #4]
 8000b8e:	f06f 0201 	mvn.w	r2, #1
 8000b92:	611a      	str	r2, [r3, #16]
}
 8000b94:	bf00      	nop
 8000b96:	370c      	adds	r7, #12
 8000b98:	46bd      	mov	sp, r7
 8000b9a:	f85d 7b04 	ldr.w	r7, [sp], #4
 8000b9e:	4770      	bx	lr

08000ba0 <LL_TIM_IsActiveFlag_UPDATE>:
{
 8000ba0:	b480      	push	{r7}
 8000ba2:	b083      	sub	sp, #12
 8000ba4:	af00      	add	r7, sp, #0
 8000ba6:	6078      	str	r0, [r7, #4]
  return ((READ_BIT(TIMx->SR, TIM_SR_UIF) == (TIM_SR_UIF)) ? 1UL : 0UL);
 8000ba8:	687b      	ldr	r3, [r7, #4]
 8000baa:	691b      	ldr	r3, [r3, #16]
 8000bac:	f003 0301 	and.w	r3, r3, #1
 8000bb0:	2b01      	cmp	r3, #1
 8000bb2:	d101      	bne.n	8000bb8 <LL_TIM_IsActiveFlag_UPDATE+0x18>
 8000bb4:	2301      	movs	r3, #1
 8000bb6:	e000      	b.n	8000bba <LL_TIM_IsActiveFlag_UPDATE+0x1a>
 8000bb8:	2300      	movs	r3, #0
}
 8000bba:	4618      	mov	r0, r3
 8000bbc:	370c      	adds	r7, #12
 8000bbe:	46bd      	mov	sp, r7
 8000bc0:	f85d 7b04 	ldr.w	r7, [sp], #4
 8000bc4:	4770      	bx	lr

08000bc6 <LL_TIM_ClearFlag_CC1>:
{
 8000bc6:	b480      	push	{r7}
 8000bc8:	b083      	sub	sp, #12
 8000bca:	af00      	add	r7, sp, #0
 8000bcc:	6078      	str	r0, [r7, #4]
  WRITE_REG(TIMx->SR, ~(TIM_SR_CC1IF));
 8000bce:	687b      	ldr	r3, [r7, #4]
 8000bd0:	f06f 0202 	mvn.w	r2, #2
 8000bd4:	611a      	str	r2, [r3, #16]
}
 8000bd6:	bf00      	nop
 8000bd8:	370c      	adds	r7, #12
 8000bda:	46bd      	mov	sp, r7
 8000bdc:	f85d 7b04 	ldr.w	r7, [sp], #4
 8000be0:	4770      	bx	lr

08000be2 <LL_TIM_IsActiveFlag_CC1>:
{
 8000be2:	b480      	push	{r7}
 8000be4:	b083      	sub	sp, #12
 8000be6:	af00      	add	r7, sp, #0
 8000be8:	6078      	str	r0, [r7, #4]
  return ((READ_BIT(TIMx->SR, TIM_SR_CC1IF) == (TIM_SR_CC1IF)) ? 1UL : 0UL);
 8000bea:	687b      	ldr	r3, [r7, #4]
 8000bec:	691b      	ldr	r3, [r3, #16]
 8000bee:	f003 0302 	and.w	r3, r3, #2
 8000bf2:	2b02      	cmp	r3, #2
 8000bf4:	d101      	bne.n	8000bfa <LL_TIM_IsActiveFlag_CC1+0x18>
 8000bf6:	2301      	movs	r3, #1
 8000bf8:	e000      	b.n	8000bfc <LL_TIM_IsActiveFlag_CC1+0x1a>
 8000bfa:	2300      	movs	r3, #0
}
 8000bfc:	4618      	mov	r0, r3
 8000bfe:	370c      	adds	r7, #12
 8000c00:	46bd      	mov	sp, r7
 8000c02:	f85d 7b04 	ldr.w	r7, [sp], #4
 8000c06:	4770      	bx	lr

08000c08 <NMI_Handler>:
/******************************************************************************/
/**
  * @brief This function handles Non maskable interrupt.
  */
void NMI_Handler(void)
{
 8000c08:	b480      	push	{r7}
 8000c0a:	af00      	add	r7, sp, #0
  /* USER CODE BEGIN NonMaskableInt_IRQn 0 */

  /* USER CODE END NonMaskableInt_IRQn 0 */
  /* USER CODE BEGIN NonMaskableInt_IRQn 1 */
   while (1)
 8000c0c:	bf00      	nop
 8000c0e:	e7fd      	b.n	8000c0c <NMI_Handler+0x4>

08000c10 <HardFault_Handler>:

/**
  * @brief This function handles Hard fault interrupt.
  */
void HardFault_Handler(void)
{
 8000c10:	b480      	push	{r7}
 8000c12:	af00      	add	r7, sp, #0
  /* USER CODE BEGIN HardFault_IRQn 0 */

  /* USER CODE END HardFault_IRQn 0 */
  while (1)
 8000c14:	bf00      	nop
 8000c16:	e7fd      	b.n	8000c14 <HardFault_Handler+0x4>

08000c18 <MemManage_Handler>:

/**
  * @brief This function handles Memory management fault.
  */
void MemManage_Handler(void)
{
 8000c18:	b480      	push	{r7}
 8000c1a:	af00      	add	r7, sp, #0
  /* USER CODE BEGIN MemoryManagement_IRQn 0 */

  /* USER CODE END MemoryManagement_IRQn 0 */
  while (1)
 8000c1c:	bf00      	nop
 8000c1e:	e7fd      	b.n	8000c1c <MemManage_Handler+0x4>

08000c20 <BusFault_Handler>:

/**
  * @brief This function handles Pre-fetch fault, memory access fault.
  */
void BusFault_Handler(void)
{
 8000c20:	b480      	push	{r7}
 8000c22:	af00      	add	r7, sp, #0
  /* USER CODE BEGIN BusFault_IRQn 0 */

  /* USER CODE END BusFault_IRQn 0 */
  while (1)
 8000c24:	bf00      	nop
 8000c26:	e7fd      	b.n	8000c24 <BusFault_Handler+0x4>

08000c28 <UsageFault_Handler>:

/**
  * @brief This function handles Undefined instruction or illegal state.
  */
void UsageFault_Handler(void)
{
 8000c28:	b480      	push	{r7}
 8000c2a:	af00      	add	r7, sp, #0
  /* USER CODE BEGIN UsageFault_IRQn 0 */

  /* USER CODE END UsageFault_IRQn 0 */
  while (1)
 8000c2c:	bf00      	nop
 8000c2e:	e7fd      	b.n	8000c2c <UsageFault_Handler+0x4>

08000c30 <SVC_Handler>:

/**
  * @brief This function handles System service call via SWI instruction.
  */
void SVC_Handler(void)
{
 8000c30:	b480      	push	{r7}
 8000c32:	af00      	add	r7, sp, #0

  /* USER CODE END SVCall_IRQn 0 */
  /* USER CODE BEGIN SVCall_IRQn 1 */

  /* USER CODE END SVCall_IRQn 1 */
}
 8000c34:	bf00      	nop
 8000c36:	46bd      	mov	sp, r7
 8000c38:	f85d 7b04 	ldr.w	r7, [sp], #4
 8000c3c:	4770      	bx	lr

08000c3e <DebugMon_Handler>:

/**
  * @brief This function handles Debug monitor.
  */
void DebugMon_Handler(void)
{
 8000c3e:	b480      	push	{r7}
 8000c40:	af00      	add	r7, sp, #0

  /* USER CODE END DebugMonitor_IRQn 0 */
  /* USER CODE BEGIN DebugMonitor_IRQn 1 */

  /* USER CODE END DebugMonitor_IRQn 1 */
}
 8000c42:	bf00      	nop
 8000c44:	46bd      	mov	sp, r7
 8000c46:	f85d 7b04 	ldr.w	r7, [sp], #4
 8000c4a:	4770      	bx	lr

08000c4c <PendSV_Handler>:

/**
  * @brief This function handles Pendable request for system service.
  */
void PendSV_Handler(void)
{
 8000c4c:	b480      	push	{r7}
 8000c4e:	af00      	add	r7, sp, #0

  /* USER CODE END PendSV_IRQn 0 */
  /* USER CODE BEGIN PendSV_IRQn 1 */

  /* USER CODE END PendSV_IRQn 1 */
}
 8000c50:	bf00      	nop
 8000c52:	46bd      	mov	sp, r7
 8000c54:	f85d 7b04 	ldr.w	r7, [sp], #4
 8000c58:	4770      	bx	lr

08000c5a <SysTick_Handler>:

/**
  * @brief This function handles System tick timer.
  */
void SysTick_Handler(void)
{
 8000c5a:	b580      	push	{r7, lr}
 8000c5c:	af00      	add	r7, sp, #0
  /* USER CODE BEGIN SysTick_IRQn 0 */

  /* USER CODE END SysTick_IRQn 0 */
  HAL_IncTick();
 8000c5e:	f000 fed3 	bl	8001a08 <HAL_IncTick>
  /* USER CODE BEGIN SysTick_IRQn 1 */

  /* USER CODE END SysTick_IRQn 1 */
}
 8000c62:	bf00      	nop
 8000c64:	bd80      	pop	{r7, pc}

08000c66 <TIM1_UP_TIM10_IRQHandler>:

/**
  * @brief This function handles TIM1 update interrupt and TIM10 global interrupt.
  */
void TIM1_UP_TIM10_IRQHandler(void)
{
 8000c66:	b480      	push	{r7}
 8000c68:	af00      	add	r7, sp, #0

  /* USER CODE END TIM1_UP_TIM10_IRQn 0 */
  /* USER CODE BEGIN TIM1_UP_TIM10_IRQn 1 */

  /* USER CODE END TIM1_UP_TIM10_IRQn 1 */
}
 8000c6a:	bf00      	nop
 8000c6c:	46bd      	mov	sp, r7
 8000c6e:	f85d 7b04 	ldr.w	r7, [sp], #4
 8000c72:	4770      	bx	lr

08000c74 <TIM4_IRQHandler>:

/**
  * @brief This function handles TIM4 global interrupt.
  */
void TIM4_IRQHandler(void)
{
 8000c74:	b580      	push	{r7, lr}
 8000c76:	af00      	add	r7, sp, #0
  /* USER CODE BEGIN TIM4_IRQn 0 */
	if(LL_TIM_IsActiveFlag_CC1(TIM4))
 8000c78:	4805      	ldr	r0, [pc, #20]	@ (8000c90 <TIM4_IRQHandler+0x1c>)
 8000c7a:	f7ff ffb2 	bl	8000be2 <LL_TIM_IsActiveFlag_CC1>
 8000c7e:	4603      	mov	r3, r0
 8000c80:	2b00      	cmp	r3, #0
 8000c82:	d002      	beq.n	8000c8a <TIM4_IRQHandler+0x16>
	{
		LL_TIM_ClearFlag_CC1(TIM4);
 8000c84:	4802      	ldr	r0, [pc, #8]	@ (8000c90 <TIM4_IRQHandler+0x1c>)
 8000c86:	f7ff ff9e 	bl	8000bc6 <LL_TIM_ClearFlag_CC1>
	}
  /* USER CODE END TIM4_IRQn 0 */
  /* USER CODE BEGIN TIM4_IRQn 1 */

  /* USER CODE END TIM4_IRQn 1 */
}
 8000c8a:	bf00      	nop
 8000c8c:	bd80      	pop	{r7, pc}
 8000c8e:	bf00      	nop
 8000c90:	40000800 	.word	0x40000800

08000c94 <TIM6_DAC_IRQHandler>:

/**
  * @brief This function handles TIM6 global interrupt, DAC1 and DAC2 underrun error interrupts.
  */
void TIM6_DAC_IRQHandler(void)
{
 8000c94:	b580      	push	{r7, lr}
 8000c96:	af00      	add	r7, sp, #0
  /* USER CODE BEGIN TIM6_DAC_IRQn 0 */
	if(LL_TIM_IsActiveFlag_UPDATE(TIM6))
 8000c98:	480c      	ldr	r0, [pc, #48]	@ (8000ccc <TIM6_DAC_IRQHandler+0x38>)
 8000c9a:	f7ff ff81 	bl	8000ba0 <LL_TIM_IsActiveFlag_UPDATE>
 8000c9e:	4603      	mov	r3, r0
 8000ca0:	2b00      	cmp	r3, #0
 8000ca2:	d011      	beq.n	8000cc8 <TIM6_DAC_IRQHandler+0x34>
	{
		LL_TIM_ClearFlag_UPDATE(TIM6);
 8000ca4:	4809      	ldr	r0, [pc, #36]	@ (8000ccc <TIM6_DAC_IRQHandler+0x38>)
 8000ca6:	f7ff ff6d 	bl	8000b84 <LL_TIM_ClearFlag_UPDATE>
		if (flag == 0) flag = 1;
 8000caa:	4b09      	ldr	r3, [pc, #36]	@ (8000cd0 <TIM6_DAC_IRQHandler+0x3c>)
 8000cac:	781b      	ldrb	r3, [r3, #0]
 8000cae:	2b00      	cmp	r3, #0
 8000cb0:	d103      	bne.n	8000cba <TIM6_DAC_IRQHandler+0x26>
 8000cb2:	4b07      	ldr	r3, [pc, #28]	@ (8000cd0 <TIM6_DAC_IRQHandler+0x3c>)
 8000cb4:	2201      	movs	r2, #1
 8000cb6:	701a      	strb	r2, [r3, #0]
	}
  /* USER CODE END TIM6_DAC_IRQn 0 */
  /* USER CODE BEGIN TIM6_DAC_IRQn 1 */

  /* USER CODE END TIM6_DAC_IRQn 1 */
}
 8000cb8:	e006      	b.n	8000cc8 <TIM6_DAC_IRQHandler+0x34>
		result2 = PCVo_CalculateVelocity(&obj);
 8000cba:	4806      	ldr	r0, [pc, #24]	@ (8000cd4 <TIM6_DAC_IRQHandler+0x40>)
 8000cbc:	f7ff faa2 	bl	8000204 <PCVo_CalculateVelocity>
 8000cc0:	4603      	mov	r3, r0
 8000cc2:	b21a      	sxth	r2, r3
 8000cc4:	4b04      	ldr	r3, [pc, #16]	@ (8000cd8 <TIM6_DAC_IRQHandler+0x44>)
 8000cc6:	801a      	strh	r2, [r3, #0]
}
 8000cc8:	bf00      	nop
 8000cca:	bd80      	pop	{r7, pc}
 8000ccc:	40001000 	.word	0x40001000
 8000cd0:	20000040 	.word	0x20000040
 8000cd4:	20000030 	.word	0x20000030
 8000cd8:	2000002c 	.word	0x2000002c

08000cdc <SystemInit>:
  *         configuration.
  * @param  None
  * @retval None
  */
void SystemInit(void)
{
 8000cdc:	b480      	push	{r7}
 8000cde:	af00      	add	r7, sp, #0
  /* FPU settings ------------------------------------------------------------*/
  #if (__FPU_PRESENT == 1) && (__FPU_USED == 1)
    SCB->CPACR |= ((3UL << 10*2)|(3UL << 11*2));  /* set CP10 and CP11 Full Access */
 8000ce0:	4b06      	ldr	r3, [pc, #24]	@ (8000cfc <SystemInit+0x20>)
 8000ce2:	f8d3 3088 	ldr.w	r3, [r3, #136]	@ 0x88
 8000ce6:	4a05      	ldr	r2, [pc, #20]	@ (8000cfc <SystemInit+0x20>)
 8000ce8:	f443 0370 	orr.w	r3, r3, #15728640	@ 0xf00000
 8000cec:	f8c2 3088 	str.w	r3, [r2, #136]	@ 0x88

  /* Configure the Vector Table location -------------------------------------*/
#if defined(USER_VECT_TAB_ADDRESS)
  SCB->VTOR = VECT_TAB_BASE_ADDRESS | VECT_TAB_OFFSET; /* Vector Table Relocation in Internal SRAM */
#endif /* USER_VECT_TAB_ADDRESS */
}
 8000cf0:	bf00      	nop
 8000cf2:	46bd      	mov	sp, r7
 8000cf4:	f85d 7b04 	ldr.w	r7, [sp], #4
 8000cf8:	4770      	bx	lr
 8000cfa:	bf00      	nop
 8000cfc:	e000ed00 	.word	0xe000ed00

08000d00 <__NVIC_GetPriorityGrouping>:
  \brief   Get Priority Grouping
  \details Reads the priority grouping field from the NVIC Interrupt Controller.
  \return                Priority grouping field (SCB->AIRCR [10:8] PRIGROUP field).
 */
__STATIC_INLINE uint32_t __NVIC_GetPriorityGrouping(void)
{
 8000d00:	b480      	push	{r7}
 8000d02:	af00      	add	r7, sp, #0
  return ((uint32_t)((SCB->AIRCR & SCB_AIRCR_PRIGROUP_Msk) >> SCB_AIRCR_PRIGROUP_Pos));
 8000d04:	4b04      	ldr	r3, [pc, #16]	@ (8000d18 <__NVIC_GetPriorityGrouping+0x18>)
 8000d06:	68db      	ldr	r3, [r3, #12]
 8000d08:	0a1b      	lsrs	r3, r3, #8
 8000d0a:	f003 0307 	and.w	r3, r3, #7
}
 8000d0e:	4618      	mov	r0, r3
 8000d10:	46bd      	mov	sp, r7
 8000d12:	f85d 7b04 	ldr.w	r7, [sp], #4
 8000d16:	4770      	bx	lr
 8000d18:	e000ed00 	.word	0xe000ed00

08000d1c <__NVIC_EnableIRQ>:
  \details Enables a device specific interrupt in the NVIC interrupt controller.
  \param [in]      IRQn  Device specific interrupt number.
  \note    IRQn must not be negative.
 */
__STATIC_INLINE void __NVIC_EnableIRQ(IRQn_Type IRQn)
{
 8000d1c:	b480      	push	{r7}
 8000d1e:	b083      	sub	sp, #12
 8000d20:	af00      	add	r7, sp, #0
 8000d22:	4603      	mov	r3, r0
 8000d24:	71fb      	strb	r3, [r7, #7]
  if ((int32_t)(IRQn) >= 0)
 8000d26:	f997 3007 	ldrsb.w	r3, [r7, #7]
 8000d2a:	2b00      	cmp	r3, #0
 8000d2c:	db0b      	blt.n	8000d46 <__NVIC_EnableIRQ+0x2a>
  {
    __COMPILER_BARRIER();
    NVIC->ISER[(((uint32_t)IRQn) >> 5UL)] = (uint32_t)(1UL << (((uint32_t)IRQn) & 0x1FUL));
 8000d2e:	79fb      	ldrb	r3, [r7, #7]
 8000d30:	f003 021f 	and.w	r2, r3, #31
 8000d34:	4907      	ldr	r1, [pc, #28]	@ (8000d54 <__NVIC_EnableIRQ+0x38>)
 8000d36:	f997 3007 	ldrsb.w	r3, [r7, #7]
 8000d3a:	095b      	lsrs	r3, r3, #5
 8000d3c:	2001      	movs	r0, #1
 8000d3e:	fa00 f202 	lsl.w	r2, r0, r2
 8000d42:	f841 2023 	str.w	r2, [r1, r3, lsl #2]
    __COMPILER_BARRIER();
  }
}
 8000d46:	bf00      	nop
 8000d48:	370c      	adds	r7, #12
 8000d4a:	46bd      	mov	sp, r7
 8000d4c:	f85d 7b04 	ldr.w	r7, [sp], #4
 8000d50:	4770      	bx	lr
 8000d52:	bf00      	nop
 8000d54:	e000e100 	.word	0xe000e100

08000d58 <__NVIC_SetPriority>:
  \param [in]      IRQn  Interrupt number.
  \param [in]  priority  Priority to set.
  \note    The priority cannot be set for every processor exception.
 */
__STATIC_INLINE void __NVIC_SetPriority(IRQn_Type IRQn, uint32_t priority)
{
 8000d58:	b480      	push	{r7}
 8000d5a:	b083      	sub	sp, #12
 8000d5c:	af00      	add	r7, sp, #0
 8000d5e:	4603      	mov	r3, r0
 8000d60:	6039      	str	r1, [r7, #0]
 8000d62:	71fb      	strb	r3, [r7, #7]
  if ((int32_t)(IRQn) >= 0)
 8000d64:	f997 3007 	ldrsb.w	r3, [r7, #7]
 8000d68:	2b00      	cmp	r3, #0
 8000d6a:	db0a      	blt.n	8000d82 <__NVIC_SetPriority+0x2a>
  {
    NVIC->IP[((uint32_t)IRQn)]               = (uint8_t)((priority << (8U - __NVIC_PRIO_BITS)) & (uint32_t)0xFFUL);
 8000d6c:	683b      	ldr	r3, [r7, #0]
 8000d6e:	b2da      	uxtb	r2, r3
 8000d70:	490c      	ldr	r1, [pc, #48]	@ (8000da4 <__NVIC_SetPriority+0x4c>)
 8000d72:	f997 3007 	ldrsb.w	r3, [r7, #7]
 8000d76:	0112      	lsls	r2, r2, #4
 8000d78:	b2d2      	uxtb	r2, r2
 8000d7a:	440b      	add	r3, r1
 8000d7c:	f883 2300 	strb.w	r2, [r3, #768]	@ 0x300
  }
  else
  {
    SCB->SHP[(((uint32_t)IRQn) & 0xFUL)-4UL] = (uint8_t)((priority << (8U - __NVIC_PRIO_BITS)) & (uint32_t)0xFFUL);
  }
}
 8000d80:	e00a      	b.n	8000d98 <__NVIC_SetPriority+0x40>
    SCB->SHP[(((uint32_t)IRQn) & 0xFUL)-4UL] = (uint8_t)((priority << (8U - __NVIC_PRIO_BITS)) & (uint32_t)0xFFUL);
 8000d82:	683b      	ldr	r3, [r7, #0]
 8000d84:	b2da      	uxtb	r2, r3
 8000d86:	4908      	ldr	r1, [pc, #32]	@ (8000da8 <__NVIC_SetPriority+0x50>)
 8000d88:	79fb      	ldrb	r3, [r7, #7]
 8000d8a:	f003 030f 	and.w	r3, r3, #15
 8000d8e:	3b04      	subs	r3, #4
 8000d90:	0112      	lsls	r2, r2, #4
 8000d92:	b2d2      	uxtb	r2, r2
 8000d94:	440b      	add	r3, r1
 8000d96:	761a      	strb	r2, [r3, #24]
}
 8000d98:	bf00      	nop
 8000d9a:	370c      	adds	r7, #12
 8000d9c:	46bd      	mov	sp, r7
 8000d9e:	f85d 7b04 	ldr.w	r7, [sp], #4
 8000da2:	4770      	bx	lr
 8000da4:	e000e100 	.word	0xe000e100
 8000da8:	e000ed00 	.word	0xe000ed00

08000dac <NVIC_EncodePriority>:
  \param [in]   PreemptPriority  Preemptive priority value (starting from 0).
  \param [in]       SubPriority  Subpriority value (starting from 0).
  \return                        Encoded priority. Value can be used in the function \ref NVIC_SetPriority().
 */
__STATIC_INLINE uint32_t NVIC_EncodePriority (uint32_t PriorityGroup, uint32_t PreemptPriority, uint32_t SubPriority)
{
 8000dac:	b480      	push	{r7}
 8000dae:	b089      	sub	sp, #36	@ 0x24
 8000db0:	af00      	add	r7, sp, #0
 8000db2:	60f8      	str	r0, [r7, #12]
 8000db4:	60b9      	str	r1, [r7, #8]
 8000db6:	607a      	str	r2, [r7, #4]
  uint32_t PriorityGroupTmp = (PriorityGroup & (uint32_t)0x07UL);   /* only values 0..7 are used          */
 8000db8:	68fb      	ldr	r3, [r7, #12]
 8000dba:	f003 0307 	and.w	r3, r3, #7
 8000dbe:	61fb      	str	r3, [r7, #28]
  uint32_t PreemptPriorityBits;
  uint32_t SubPriorityBits;

  PreemptPriorityBits = ((7UL - PriorityGroupTmp) > (uint32_t)(__NVIC_PRIO_BITS)) ? (uint32_t)(__NVIC_PRIO_BITS) : (uint32_t)(7UL - PriorityGroupTmp);
 8000dc0:	69fb      	ldr	r3, [r7, #28]
 8000dc2:	f1c3 0307 	rsb	r3, r3, #7
 8000dc6:	2b04      	cmp	r3, #4
 8000dc8:	bf28      	it	cs
 8000dca:	2304      	movcs	r3, #4
 8000dcc:	61bb      	str	r3, [r7, #24]
  SubPriorityBits     = ((PriorityGroupTmp + (uint32_t)(__NVIC_PRIO_BITS)) < (uint32_t)7UL) ? (uint32_t)0UL : (uint32_t)((PriorityGroupTmp - 7UL) + (uint32_t)(__NVIC_PRIO_BITS));
 8000dce:	69fb      	ldr	r3, [r7, #28]
 8000dd0:	3304      	adds	r3, #4
 8000dd2:	2b06      	cmp	r3, #6
 8000dd4:	d902      	bls.n	8000ddc <NVIC_EncodePriority+0x30>
 8000dd6:	69fb      	ldr	r3, [r7, #28]
 8000dd8:	3b03      	subs	r3, #3
 8000dda:	e000      	b.n	8000dde <NVIC_EncodePriority+0x32>
 8000ddc:	2300      	movs	r3, #0
 8000dde:	617b      	str	r3, [r7, #20]

  return (
           ((PreemptPriority & (uint32_t)((1UL << (PreemptPriorityBits)) - 1UL)) << SubPriorityBits) |
 8000de0:	f04f 32ff 	mov.w	r2, #4294967295
 8000de4:	69bb      	ldr	r3, [r7, #24]
 8000de6:	fa02 f303 	lsl.w	r3, r2, r3
 8000dea:	43da      	mvns	r2, r3
 8000dec:	68bb      	ldr	r3, [r7, #8]
 8000dee:	401a      	ands	r2, r3
 8000df0:	697b      	ldr	r3, [r7, #20]
 8000df2:	409a      	lsls	r2, r3
           ((SubPriority     & (uint32_t)((1UL << (SubPriorityBits    )) - 1UL)))
 8000df4:	f04f 31ff 	mov.w	r1, #4294967295
 8000df8:	697b      	ldr	r3, [r7, #20]
 8000dfa:	fa01 f303 	lsl.w	r3, r1, r3
 8000dfe:	43d9      	mvns	r1, r3
 8000e00:	687b      	ldr	r3, [r7, #4]
 8000e02:	400b      	ands	r3, r1
           ((PreemptPriority & (uint32_t)((1UL << (PreemptPriorityBits)) - 1UL)) << SubPriorityBits) |
 8000e04:	4313      	orrs	r3, r2
         );
}
 8000e06:	4618      	mov	r0, r3
 8000e08:	3724      	adds	r7, #36	@ 0x24
 8000e0a:	46bd      	mov	sp, r7
 8000e0c:	f85d 7b04 	ldr.w	r7, [sp], #4
 8000e10:	4770      	bx	lr
	...

08000e14 <LL_AHB1_GRP1_EnableClock>:
{
 8000e14:	b480      	push	{r7}
 8000e16:	b085      	sub	sp, #20
 8000e18:	af00      	add	r7, sp, #0
 8000e1a:	6078      	str	r0, [r7, #4]
  SET_BIT(RCC->AHB1ENR, Periphs);
 8000e1c:	4b08      	ldr	r3, [pc, #32]	@ (8000e40 <LL_AHB1_GRP1_EnableClock+0x2c>)
 8000e1e:	6b1a      	ldr	r2, [r3, #48]	@ 0x30
 8000e20:	4907      	ldr	r1, [pc, #28]	@ (8000e40 <LL_AHB1_GRP1_EnableClock+0x2c>)
 8000e22:	687b      	ldr	r3, [r7, #4]
 8000e24:	4313      	orrs	r3, r2
 8000e26:	630b      	str	r3, [r1, #48]	@ 0x30
  tmpreg = READ_BIT(RCC->AHB1ENR, Periphs);
 8000e28:	4b05      	ldr	r3, [pc, #20]	@ (8000e40 <LL_AHB1_GRP1_EnableClock+0x2c>)
 8000e2a:	6b1a      	ldr	r2, [r3, #48]	@ 0x30
 8000e2c:	687b      	ldr	r3, [r7, #4]
 8000e2e:	4013      	ands	r3, r2
 8000e30:	60fb      	str	r3, [r7, #12]
  (void)tmpreg;
 8000e32:	68fb      	ldr	r3, [r7, #12]
}
 8000e34:	bf00      	nop
 8000e36:	3714      	adds	r7, #20
 8000e38:	46bd      	mov	sp, r7
 8000e3a:	f85d 7b04 	ldr.w	r7, [sp], #4
 8000e3e:	4770      	bx	lr
 8000e40:	40023800 	.word	0x40023800

08000e44 <LL_APB1_GRP1_EnableClock>:
  *
  *         (*) value not defined in all devices.
  * @retval None
  */
__STATIC_INLINE void LL_APB1_GRP1_EnableClock(uint32_t Periphs)
{
 8000e44:	b480      	push	{r7}
 8000e46:	b085      	sub	sp, #20
 8000e48:	af00      	add	r7, sp, #0
 8000e4a:	6078      	str	r0, [r7, #4]
  __IO uint32_t tmpreg;
  SET_BIT(RCC->APB1ENR, Periphs);
 8000e4c:	4b08      	ldr	r3, [pc, #32]	@ (8000e70 <LL_APB1_GRP1_EnableClock+0x2c>)
 8000e4e:	6c1a      	ldr	r2, [r3, #64]	@ 0x40
 8000e50:	4907      	ldr	r1, [pc, #28]	@ (8000e70 <LL_APB1_GRP1_EnableClock+0x2c>)
 8000e52:	687b      	ldr	r3, [r7, #4]
 8000e54:	4313      	orrs	r3, r2
 8000e56:	640b      	str	r3, [r1, #64]	@ 0x40
  /* Delay after an RCC peripheral clock enabling */
  tmpreg = READ_BIT(RCC->APB1ENR, Periphs);
 8000e58:	4b05      	ldr	r3, [pc, #20]	@ (8000e70 <LL_APB1_GRP1_EnableClock+0x2c>)
 8000e5a:	6c1a      	ldr	r2, [r3, #64]	@ 0x40
 8000e5c:	687b      	ldr	r3, [r7, #4]
 8000e5e:	4013      	ands	r3, r2
 8000e60:	60fb      	str	r3, [r7, #12]
  (void)tmpreg;
 8000e62:	68fb      	ldr	r3, [r7, #12]
}
 8000e64:	bf00      	nop
 8000e66:	3714      	adds	r7, #20
 8000e68:	46bd      	mov	sp, r7
 8000e6a:	f85d 7b04 	ldr.w	r7, [sp], #4
 8000e6e:	4770      	bx	lr
 8000e70:	40023800 	.word	0x40023800

08000e74 <LL_APB2_GRP1_EnableClock>:
  *
  *         (*) value not defined in all devices.
  * @retval None
  */
__STATIC_INLINE void LL_APB2_GRP1_EnableClock(uint32_t Periphs)
{
 8000e74:	b480      	push	{r7}
 8000e76:	b085      	sub	sp, #20
 8000e78:	af00      	add	r7, sp, #0
 8000e7a:	6078      	str	r0, [r7, #4]
  __IO uint32_t tmpreg;
  SET_BIT(RCC->APB2ENR, Periphs);
 8000e7c:	4b08      	ldr	r3, [pc, #32]	@ (8000ea0 <LL_APB2_GRP1_EnableClock+0x2c>)
 8000e7e:	6c5a      	ldr	r2, [r3, #68]	@ 0x44
 8000e80:	4907      	ldr	r1, [pc, #28]	@ (8000ea0 <LL_APB2_GRP1_EnableClock+0x2c>)
 8000e82:	687b      	ldr	r3, [r7, #4]
 8000e84:	4313      	orrs	r3, r2
 8000e86:	644b      	str	r3, [r1, #68]	@ 0x44
  /* Delay after an RCC peripheral clock enabling */
  tmpreg = READ_BIT(RCC->APB2ENR, Periphs);
 8000e88:	4b05      	ldr	r3, [pc, #20]	@ (8000ea0 <LL_APB2_GRP1_EnableClock+0x2c>)
 8000e8a:	6c5a      	ldr	r2, [r3, #68]	@ 0x44
 8000e8c:	687b      	ldr	r3, [r7, #4]
 8000e8e:	4013      	ands	r3, r2
 8000e90:	60fb      	str	r3, [r7, #12]
  (void)tmpreg;
 8000e92:	68fb      	ldr	r3, [r7, #12]
}
 8000e94:	bf00      	nop
 8000e96:	3714      	adds	r7, #20
 8000e98:	46bd      	mov	sp, r7
 8000e9a:	f85d 7b04 	ldr.w	r7, [sp], #4
 8000e9e:	4770      	bx	lr
 8000ea0:	40023800 	.word	0x40023800

08000ea4 <LL_TIM_DisableARRPreload>:
{
 8000ea4:	b480      	push	{r7}
 8000ea6:	b083      	sub	sp, #12
 8000ea8:	af00      	add	r7, sp, #0
 8000eaa:	6078      	str	r0, [r7, #4]
  CLEAR_BIT(TIMx->CR1, TIM_CR1_ARPE);
 8000eac:	687b      	ldr	r3, [r7, #4]
 8000eae:	681b      	ldr	r3, [r3, #0]
 8000eb0:	f023 0280 	bic.w	r2, r3, #128	@ 0x80
 8000eb4:	687b      	ldr	r3, [r7, #4]
 8000eb6:	601a      	str	r2, [r3, #0]
}
 8000eb8:	bf00      	nop
 8000eba:	370c      	adds	r7, #12
 8000ebc:	46bd      	mov	sp, r7
 8000ebe:	f85d 7b04 	ldr.w	r7, [sp], #4
 8000ec2:	4770      	bx	lr

08000ec4 <LL_TIM_OC_DisableFast>:
{
 8000ec4:	b480      	push	{r7}
 8000ec6:	b085      	sub	sp, #20
 8000ec8:	af00      	add	r7, sp, #0
 8000eca:	6078      	str	r0, [r7, #4]
 8000ecc:	6039      	str	r1, [r7, #0]
  uint8_t iChannel = TIM_GET_CHANNEL_INDEX(Channel);
 8000ece:	683b      	ldr	r3, [r7, #0]
 8000ed0:	2b01      	cmp	r3, #1
 8000ed2:	d01c      	beq.n	8000f0e <LL_TIM_OC_DisableFast+0x4a>
 8000ed4:	683b      	ldr	r3, [r7, #0]
 8000ed6:	2b04      	cmp	r3, #4
 8000ed8:	d017      	beq.n	8000f0a <LL_TIM_OC_DisableFast+0x46>
 8000eda:	683b      	ldr	r3, [r7, #0]
 8000edc:	2b10      	cmp	r3, #16
 8000ede:	d012      	beq.n	8000f06 <LL_TIM_OC_DisableFast+0x42>
 8000ee0:	683b      	ldr	r3, [r7, #0]
 8000ee2:	2b40      	cmp	r3, #64	@ 0x40
 8000ee4:	d00d      	beq.n	8000f02 <LL_TIM_OC_DisableFast+0x3e>
 8000ee6:	683b      	ldr	r3, [r7, #0]
 8000ee8:	f5b3 7f80 	cmp.w	r3, #256	@ 0x100
 8000eec:	d007      	beq.n	8000efe <LL_TIM_OC_DisableFast+0x3a>
 8000eee:	683b      	ldr	r3, [r7, #0]
 8000ef0:	f5b3 6f80 	cmp.w	r3, #1024	@ 0x400
 8000ef4:	d101      	bne.n	8000efa <LL_TIM_OC_DisableFast+0x36>
 8000ef6:	2305      	movs	r3, #5
 8000ef8:	e00a      	b.n	8000f10 <LL_TIM_OC_DisableFast+0x4c>
 8000efa:	2306      	movs	r3, #6
 8000efc:	e008      	b.n	8000f10 <LL_TIM_OC_DisableFast+0x4c>
 8000efe:	2304      	movs	r3, #4
 8000f00:	e006      	b.n	8000f10 <LL_TIM_OC_DisableFast+0x4c>
 8000f02:	2303      	movs	r3, #3
 8000f04:	e004      	b.n	8000f10 <LL_TIM_OC_DisableFast+0x4c>
 8000f06:	2302      	movs	r3, #2
 8000f08:	e002      	b.n	8000f10 <LL_TIM_OC_DisableFast+0x4c>
 8000f0a:	2301      	movs	r3, #1
 8000f0c:	e000      	b.n	8000f10 <LL_TIM_OC_DisableFast+0x4c>
 8000f0e:	2300      	movs	r3, #0
 8000f10:	73fb      	strb	r3, [r7, #15]
  __IO uint32_t *pReg = (__IO uint32_t *)((uint32_t)((uint32_t)(&TIMx->CCMR1) + OFFSET_TAB_CCMRx[iChannel]));
 8000f12:	687b      	ldr	r3, [r7, #4]
 8000f14:	3318      	adds	r3, #24
 8000f16:	4619      	mov	r1, r3
 8000f18:	7bfb      	ldrb	r3, [r7, #15]
 8000f1a:	4a0b      	ldr	r2, [pc, #44]	@ (8000f48 <LL_TIM_OC_DisableFast+0x84>)
 8000f1c:	5cd3      	ldrb	r3, [r2, r3]
 8000f1e:	440b      	add	r3, r1
 8000f20:	60bb      	str	r3, [r7, #8]
  CLEAR_BIT(*pReg, (TIM_CCMR1_OC1FE << SHIFT_TAB_OCxx[iChannel]));
 8000f22:	68bb      	ldr	r3, [r7, #8]
 8000f24:	681a      	ldr	r2, [r3, #0]
 8000f26:	7bfb      	ldrb	r3, [r7, #15]
 8000f28:	4908      	ldr	r1, [pc, #32]	@ (8000f4c <LL_TIM_OC_DisableFast+0x88>)
 8000f2a:	5ccb      	ldrb	r3, [r1, r3]
 8000f2c:	4619      	mov	r1, r3
 8000f2e:	2304      	movs	r3, #4
 8000f30:	408b      	lsls	r3, r1
 8000f32:	43db      	mvns	r3, r3
 8000f34:	401a      	ands	r2, r3
 8000f36:	68bb      	ldr	r3, [r7, #8]
 8000f38:	601a      	str	r2, [r3, #0]
}
 8000f3a:	bf00      	nop
 8000f3c:	3714      	adds	r7, #20
 8000f3e:	46bd      	mov	sp, r7
 8000f40:	f85d 7b04 	ldr.w	r7, [sp], #4
 8000f44:	4770      	bx	lr
 8000f46:	bf00      	nop
 8000f48:	08002ddc 	.word	0x08002ddc
 8000f4c:	08002de4 	.word	0x08002de4

08000f50 <LL_TIM_OC_EnablePreload>:
{
 8000f50:	b480      	push	{r7}
 8000f52:	b085      	sub	sp, #20
 8000f54:	af00      	add	r7, sp, #0
 8000f56:	6078      	str	r0, [r7, #4]
 8000f58:	6039      	str	r1, [r7, #0]
  uint8_t iChannel = TIM_GET_CHANNEL_INDEX(Channel);
 8000f5a:	683b      	ldr	r3, [r7, #0]
 8000f5c:	2b01      	cmp	r3, #1
 8000f5e:	d01c      	beq.n	8000f9a <LL_TIM_OC_EnablePreload+0x4a>
 8000f60:	683b      	ldr	r3, [r7, #0]
 8000f62:	2b04      	cmp	r3, #4
 8000f64:	d017      	beq.n	8000f96 <LL_TIM_OC_EnablePreload+0x46>
 8000f66:	683b      	ldr	r3, [r7, #0]
 8000f68:	2b10      	cmp	r3, #16
 8000f6a:	d012      	beq.n	8000f92 <LL_TIM_OC_EnablePreload+0x42>
 8000f6c:	683b      	ldr	r3, [r7, #0]
 8000f6e:	2b40      	cmp	r3, #64	@ 0x40
 8000f70:	d00d      	beq.n	8000f8e <LL_TIM_OC_EnablePreload+0x3e>
 8000f72:	683b      	ldr	r3, [r7, #0]
 8000f74:	f5b3 7f80 	cmp.w	r3, #256	@ 0x100
 8000f78:	d007      	beq.n	8000f8a <LL_TIM_OC_EnablePreload+0x3a>
 8000f7a:	683b      	ldr	r3, [r7, #0]
 8000f7c:	f5b3 6f80 	cmp.w	r3, #1024	@ 0x400
 8000f80:	d101      	bne.n	8000f86 <LL_TIM_OC_EnablePreload+0x36>
 8000f82:	2305      	movs	r3, #5
 8000f84:	e00a      	b.n	8000f9c <LL_TIM_OC_EnablePreload+0x4c>
 8000f86:	2306      	movs	r3, #6
 8000f88:	e008      	b.n	8000f9c <LL_TIM_OC_EnablePreload+0x4c>
 8000f8a:	2304      	movs	r3, #4
 8000f8c:	e006      	b.n	8000f9c <LL_TIM_OC_EnablePreload+0x4c>
 8000f8e:	2303      	movs	r3, #3
 8000f90:	e004      	b.n	8000f9c <LL_TIM_OC_EnablePreload+0x4c>
 8000f92:	2302      	movs	r3, #2
 8000f94:	e002      	b.n	8000f9c <LL_TIM_OC_EnablePreload+0x4c>
 8000f96:	2301      	movs	r3, #1
 8000f98:	e000      	b.n	8000f9c <LL_TIM_OC_EnablePreload+0x4c>
 8000f9a:	2300      	movs	r3, #0
 8000f9c:	73fb      	strb	r3, [r7, #15]
  __IO uint32_t *pReg = (__IO uint32_t *)((uint32_t)((uint32_t)(&TIMx->CCMR1) + OFFSET_TAB_CCMRx[iChannel]));
 8000f9e:	687b      	ldr	r3, [r7, #4]
 8000fa0:	3318      	adds	r3, #24
 8000fa2:	4619      	mov	r1, r3
 8000fa4:	7bfb      	ldrb	r3, [r7, #15]
 8000fa6:	4a0a      	ldr	r2, [pc, #40]	@ (8000fd0 <LL_TIM_OC_EnablePreload+0x80>)
 8000fa8:	5cd3      	ldrb	r3, [r2, r3]
 8000faa:	440b      	add	r3, r1
 8000fac:	60bb      	str	r3, [r7, #8]
  SET_BIT(*pReg, (TIM_CCMR1_OC1PE << SHIFT_TAB_OCxx[iChannel]));
 8000fae:	68bb      	ldr	r3, [r7, #8]
 8000fb0:	681a      	ldr	r2, [r3, #0]
 8000fb2:	7bfb      	ldrb	r3, [r7, #15]
 8000fb4:	4907      	ldr	r1, [pc, #28]	@ (8000fd4 <LL_TIM_OC_EnablePreload+0x84>)
 8000fb6:	5ccb      	ldrb	r3, [r1, r3]
 8000fb8:	4619      	mov	r1, r3
 8000fba:	2308      	movs	r3, #8
 8000fbc:	408b      	lsls	r3, r1
 8000fbe:	431a      	orrs	r2, r3
 8000fc0:	68bb      	ldr	r3, [r7, #8]
 8000fc2:	601a      	str	r2, [r3, #0]
}
 8000fc4:	bf00      	nop
 8000fc6:	3714      	adds	r7, #20
 8000fc8:	46bd      	mov	sp, r7
 8000fca:	f85d 7b04 	ldr.w	r7, [sp], #4
 8000fce:	4770      	bx	lr
 8000fd0:	08002ddc 	.word	0x08002ddc
 8000fd4:	08002de4 	.word	0x08002de4

08000fd8 <LL_TIM_IC_SetActiveInput>:
{
 8000fd8:	b480      	push	{r7}
 8000fda:	b087      	sub	sp, #28
 8000fdc:	af00      	add	r7, sp, #0
 8000fde:	60f8      	str	r0, [r7, #12]
 8000fe0:	60b9      	str	r1, [r7, #8]
 8000fe2:	607a      	str	r2, [r7, #4]
  uint8_t iChannel = TIM_GET_CHANNEL_INDEX(Channel);
 8000fe4:	68bb      	ldr	r3, [r7, #8]
 8000fe6:	2b01      	cmp	r3, #1
 8000fe8:	d01c      	beq.n	8001024 <LL_TIM_IC_SetActiveInput+0x4c>
 8000fea:	68bb      	ldr	r3, [r7, #8]
 8000fec:	2b04      	cmp	r3, #4
 8000fee:	d017      	beq.n	8001020 <LL_TIM_IC_SetActiveInput+0x48>
 8000ff0:	68bb      	ldr	r3, [r7, #8]
 8000ff2:	2b10      	cmp	r3, #16
 8000ff4:	d012      	beq.n	800101c <LL_TIM_IC_SetActiveInput+0x44>
 8000ff6:	68bb      	ldr	r3, [r7, #8]
 8000ff8:	2b40      	cmp	r3, #64	@ 0x40
 8000ffa:	d00d      	beq.n	8001018 <LL_TIM_IC_SetActiveInput+0x40>
 8000ffc:	68bb      	ldr	r3, [r7, #8]
 8000ffe:	f5b3 7f80 	cmp.w	r3, #256	@ 0x100
 8001002:	d007      	beq.n	8001014 <LL_TIM_IC_SetActiveInput+0x3c>
 8001004:	68bb      	ldr	r3, [r7, #8]
 8001006:	f5b3 6f80 	cmp.w	r3, #1024	@ 0x400
 800100a:	d101      	bne.n	8001010 <LL_TIM_IC_SetActiveInput+0x38>
 800100c:	2305      	movs	r3, #5
 800100e:	e00a      	b.n	8001026 <LL_TIM_IC_SetActiveInput+0x4e>
 8001010:	2306      	movs	r3, #6
 8001012:	e008      	b.n	8001026 <LL_TIM_IC_SetActiveInput+0x4e>
 8001014:	2304      	movs	r3, #4
 8001016:	e006      	b.n	8001026 <LL_TIM_IC_SetActiveInput+0x4e>
 8001018:	2303      	movs	r3, #3
 800101a:	e004      	b.n	8001026 <LL_TIM_IC_SetActiveInput+0x4e>
 800101c:	2302      	movs	r3, #2
 800101e:	e002      	b.n	8001026 <LL_TIM_IC_SetActiveInput+0x4e>
 8001020:	2301      	movs	r3, #1
 8001022:	e000      	b.n	8001026 <LL_TIM_IC_SetActiveInput+0x4e>
 8001024:	2300      	movs	r3, #0
 8001026:	75fb      	strb	r3, [r7, #23]
  __IO uint32_t *pReg = (__IO uint32_t *)((uint32_t)((uint32_t)(&TIMx->CCMR1) + OFFSET_TAB_CCMRx[iChannel]));
 8001028:	68fb      	ldr	r3, [r7, #12]
 800102a:	3318      	adds	r3, #24
 800102c:	4619      	mov	r1, r3
 800102e:	7dfb      	ldrb	r3, [r7, #23]
 8001030:	4a0e      	ldr	r2, [pc, #56]	@ (800106c <LL_TIM_IC_SetActiveInput+0x94>)
 8001032:	5cd3      	ldrb	r3, [r2, r3]
 8001034:	440b      	add	r3, r1
 8001036:	613b      	str	r3, [r7, #16]
  MODIFY_REG(*pReg, ((TIM_CCMR1_CC1S) << SHIFT_TAB_ICxx[iChannel]), (ICActiveInput >> 16U) << SHIFT_TAB_ICxx[iChannel]);
 8001038:	693b      	ldr	r3, [r7, #16]
 800103a:	681a      	ldr	r2, [r3, #0]
 800103c:	7dfb      	ldrb	r3, [r7, #23]
 800103e:	490c      	ldr	r1, [pc, #48]	@ (8001070 <LL_TIM_IC_SetActiveInput+0x98>)
 8001040:	5ccb      	ldrb	r3, [r1, r3]
 8001042:	4619      	mov	r1, r3
 8001044:	2303      	movs	r3, #3
 8001046:	408b      	lsls	r3, r1
 8001048:	43db      	mvns	r3, r3
 800104a:	401a      	ands	r2, r3
 800104c:	687b      	ldr	r3, [r7, #4]
 800104e:	0c1b      	lsrs	r3, r3, #16
 8001050:	7df9      	ldrb	r1, [r7, #23]
 8001052:	4807      	ldr	r0, [pc, #28]	@ (8001070 <LL_TIM_IC_SetActiveInput+0x98>)
 8001054:	5c41      	ldrb	r1, [r0, r1]
 8001056:	408b      	lsls	r3, r1
 8001058:	431a      	orrs	r2, r3
 800105a:	693b      	ldr	r3, [r7, #16]
 800105c:	601a      	str	r2, [r3, #0]
}
 800105e:	bf00      	nop
 8001060:	371c      	adds	r7, #28
 8001062:	46bd      	mov	sp, r7
 8001064:	f85d 7b04 	ldr.w	r7, [sp], #4
 8001068:	4770      	bx	lr
 800106a:	bf00      	nop
 800106c:	08002ddc 	.word	0x08002ddc
 8001070:	08002dec 	.word	0x08002dec

08001074 <LL_TIM_IC_SetPrescaler>:
{
 8001074:	b480      	push	{r7}
 8001076:	b087      	sub	sp, #28
 8001078:	af00      	add	r7, sp, #0
 800107a:	60f8      	str	r0, [r7, #12]
 800107c:	60b9      	str	r1, [r7, #8]
 800107e:	607a      	str	r2, [r7, #4]
  uint8_t iChannel = TIM_GET_CHANNEL_INDEX(Channel);
 8001080:	68bb      	ldr	r3, [r7, #8]
 8001082:	2b01      	cmp	r3, #1
 8001084:	d01c      	beq.n	80010c0 <LL_TIM_IC_SetPrescaler+0x4c>
 8001086:	68bb      	ldr	r3, [r7, #8]
 8001088:	2b04      	cmp	r3, #4
 800108a:	d017      	beq.n	80010bc <LL_TIM_IC_SetPrescaler+0x48>
 800108c:	68bb      	ldr	r3, [r7, #8]
 800108e:	2b10      	cmp	r3, #16
 8001090:	d012      	beq.n	80010b8 <LL_TIM_IC_SetPrescaler+0x44>
 8001092:	68bb      	ldr	r3, [r7, #8]
 8001094:	2b40      	cmp	r3, #64	@ 0x40
 8001096:	d00d      	beq.n	80010b4 <LL_TIM_IC_SetPrescaler+0x40>
 8001098:	68bb      	ldr	r3, [r7, #8]
 800109a:	f5b3 7f80 	cmp.w	r3, #256	@ 0x100
 800109e:	d007      	beq.n	80010b0 <LL_TIM_IC_SetPrescaler+0x3c>
 80010a0:	68bb      	ldr	r3, [r7, #8]
 80010a2:	f5b3 6f80 	cmp.w	r3, #1024	@ 0x400
 80010a6:	d101      	bne.n	80010ac <LL_TIM_IC_SetPrescaler+0x38>
 80010a8:	2305      	movs	r3, #5
 80010aa:	e00a      	b.n	80010c2 <LL_TIM_IC_SetPrescaler+0x4e>
 80010ac:	2306      	movs	r3, #6
 80010ae:	e008      	b.n	80010c2 <LL_TIM_IC_SetPrescaler+0x4e>
 80010b0:	2304      	movs	r3, #4
 80010b2:	e006      	b.n	80010c2 <LL_TIM_IC_SetPrescaler+0x4e>
 80010b4:	2303      	movs	r3, #3
 80010b6:	e004      	b.n	80010c2 <LL_TIM_IC_SetPrescaler+0x4e>
 80010b8:	2302      	movs	r3, #2
 80010ba:	e002      	b.n	80010c2 <LL_TIM_IC_SetPrescaler+0x4e>
 80010bc:	2301      	movs	r3, #1
 80010be:	e000      	b.n	80010c2 <LL_TIM_IC_SetPrescaler+0x4e>
 80010c0:	2300      	movs	r3, #0
 80010c2:	75fb      	strb	r3, [r7, #23]
  __IO uint32_t *pReg = (__IO uint32_t *)((uint32_t)((uint32_t)(&TIMx->CCMR1) + OFFSET_TAB_CCMRx[iChannel]));
 80010c4:	68fb      	ldr	r3, [r7, #12]
 80010c6:	3318      	adds	r3, #24
 80010c8:	4619      	mov	r1, r3
 80010ca:	7dfb      	ldrb	r3, [r7, #23]
 80010cc:	4a0e      	ldr	r2, [pc, #56]	@ (8001108 <LL_TIM_IC_SetPrescaler+0x94>)
 80010ce:	5cd3      	ldrb	r3, [r2, r3]
 80010d0:	440b      	add	r3, r1
 80010d2:	613b      	str	r3, [r7, #16]
  MODIFY_REG(*pReg, ((TIM_CCMR1_IC1PSC) << SHIFT_TAB_ICxx[iChannel]), (ICPrescaler >> 16U) << SHIFT_TAB_ICxx[iChannel]);
 80010d4:	693b      	ldr	r3, [r7, #16]
 80010d6:	681a      	ldr	r2, [r3, #0]
 80010d8:	7dfb      	ldrb	r3, [r7, #23]
 80010da:	490c      	ldr	r1, [pc, #48]	@ (800110c <LL_TIM_IC_SetPrescaler+0x98>)
 80010dc:	5ccb      	ldrb	r3, [r1, r3]
 80010de:	4619      	mov	r1, r3
 80010e0:	230c      	movs	r3, #12
 80010e2:	408b      	lsls	r3, r1
 80010e4:	43db      	mvns	r3, r3
 80010e6:	401a      	ands	r2, r3
 80010e8:	687b      	ldr	r3, [r7, #4]
 80010ea:	0c1b      	lsrs	r3, r3, #16
 80010ec:	7df9      	ldrb	r1, [r7, #23]
 80010ee:	4807      	ldr	r0, [pc, #28]	@ (800110c <LL_TIM_IC_SetPrescaler+0x98>)
 80010f0:	5c41      	ldrb	r1, [r0, r1]
 80010f2:	408b      	lsls	r3, r1
 80010f4:	431a      	orrs	r2, r3
 80010f6:	693b      	ldr	r3, [r7, #16]
 80010f8:	601a      	str	r2, [r3, #0]
}
 80010fa:	bf00      	nop
 80010fc:	371c      	adds	r7, #28
 80010fe:	46bd      	mov	sp, r7
 8001100:	f85d 7b04 	ldr.w	r7, [sp], #4
 8001104:	4770      	bx	lr
 8001106:	bf00      	nop
 8001108:	08002ddc 	.word	0x08002ddc
 800110c:	08002dec 	.word	0x08002dec

08001110 <LL_TIM_IC_SetFilter>:
{
 8001110:	b480      	push	{r7}
 8001112:	b087      	sub	sp, #28
 8001114:	af00      	add	r7, sp, #0
 8001116:	60f8      	str	r0, [r7, #12]
 8001118:	60b9      	str	r1, [r7, #8]
 800111a:	607a      	str	r2, [r7, #4]
  uint8_t iChannel = TIM_GET_CHANNEL_INDEX(Channel);
 800111c:	68bb      	ldr	r3, [r7, #8]
 800111e:	2b01      	cmp	r3, #1
 8001120:	d01c      	beq.n	800115c <LL_TIM_IC_SetFilter+0x4c>
 8001122:	68bb      	ldr	r3, [r7, #8]
 8001124:	2b04      	cmp	r3, #4
 8001126:	d017      	beq.n	8001158 <LL_TIM_IC_SetFilter+0x48>
 8001128:	68bb      	ldr	r3, [r7, #8]
 800112a:	2b10      	cmp	r3, #16
 800112c:	d012      	beq.n	8001154 <LL_TIM_IC_SetFilter+0x44>
 800112e:	68bb      	ldr	r3, [r7, #8]
 8001130:	2b40      	cmp	r3, #64	@ 0x40
 8001132:	d00d      	beq.n	8001150 <LL_TIM_IC_SetFilter+0x40>
 8001134:	68bb      	ldr	r3, [r7, #8]
 8001136:	f5b3 7f80 	cmp.w	r3, #256	@ 0x100
 800113a:	d007      	beq.n	800114c <LL_TIM_IC_SetFilter+0x3c>
 800113c:	68bb      	ldr	r3, [r7, #8]
 800113e:	f5b3 6f80 	cmp.w	r3, #1024	@ 0x400
 8001142:	d101      	bne.n	8001148 <LL_TIM_IC_SetFilter+0x38>
 8001144:	2305      	movs	r3, #5
 8001146:	e00a      	b.n	800115e <LL_TIM_IC_SetFilter+0x4e>
 8001148:	2306      	movs	r3, #6
 800114a:	e008      	b.n	800115e <LL_TIM_IC_SetFilter+0x4e>
 800114c:	2304      	movs	r3, #4
 800114e:	e006      	b.n	800115e <LL_TIM_IC_SetFilter+0x4e>
 8001150:	2303      	movs	r3, #3
 8001152:	e004      	b.n	800115e <LL_TIM_IC_SetFilter+0x4e>
 8001154:	2302      	movs	r3, #2
 8001156:	e002      	b.n	800115e <LL_TIM_IC_SetFilter+0x4e>
 8001158:	2301      	movs	r3, #1
 800115a:	e000      	b.n	800115e <LL_TIM_IC_SetFilter+0x4e>
 800115c:	2300      	movs	r3, #0
 800115e:	75fb      	strb	r3, [r7, #23]
  __IO uint32_t *pReg = (__IO uint32_t *)((uint32_t)((uint32_t)(&TIMx->CCMR1) + OFFSET_TAB_CCMRx[iChannel]));
 8001160:	68fb      	ldr	r3, [r7, #12]
 8001162:	3318      	adds	r3, #24
 8001164:	4619      	mov	r1, r3
 8001166:	7dfb      	ldrb	r3, [r7, #23]
 8001168:	4a0e      	ldr	r2, [pc, #56]	@ (80011a4 <LL_TIM_IC_SetFilter+0x94>)
 800116a:	5cd3      	ldrb	r3, [r2, r3]
 800116c:	440b      	add	r3, r1
 800116e:	613b      	str	r3, [r7, #16]
  MODIFY_REG(*pReg, ((TIM_CCMR1_IC1F) << SHIFT_TAB_ICxx[iChannel]), (ICFilter >> 16U) << SHIFT_TAB_ICxx[iChannel]);
 8001170:	693b      	ldr	r3, [r7, #16]
 8001172:	681a      	ldr	r2, [r3, #0]
 8001174:	7dfb      	ldrb	r3, [r7, #23]
 8001176:	490c      	ldr	r1, [pc, #48]	@ (80011a8 <LL_TIM_IC_SetFilter+0x98>)
 8001178:	5ccb      	ldrb	r3, [r1, r3]
 800117a:	4619      	mov	r1, r3
 800117c:	23f0      	movs	r3, #240	@ 0xf0
 800117e:	408b      	lsls	r3, r1
 8001180:	43db      	mvns	r3, r3
 8001182:	401a      	ands	r2, r3
 8001184:	687b      	ldr	r3, [r7, #4]
 8001186:	0c1b      	lsrs	r3, r3, #16
 8001188:	7df9      	ldrb	r1, [r7, #23]
 800118a:	4807      	ldr	r0, [pc, #28]	@ (80011a8 <LL_TIM_IC_SetFilter+0x98>)
 800118c:	5c41      	ldrb	r1, [r0, r1]
 800118e:	408b      	lsls	r3, r1
 8001190:	431a      	orrs	r2, r3
 8001192:	693b      	ldr	r3, [r7, #16]
 8001194:	601a      	str	r2, [r3, #0]
}
 8001196:	bf00      	nop
 8001198:	371c      	adds	r7, #28
 800119a:	46bd      	mov	sp, r7
 800119c:	f85d 7b04 	ldr.w	r7, [sp], #4
 80011a0:	4770      	bx	lr
 80011a2:	bf00      	nop
 80011a4:	08002ddc 	.word	0x08002ddc
 80011a8:	08002dec 	.word	0x08002dec

080011ac <LL_TIM_IC_SetPolarity>:
{
 80011ac:	b480      	push	{r7}
 80011ae:	b087      	sub	sp, #28
 80011b0:	af00      	add	r7, sp, #0
 80011b2:	60f8      	str	r0, [r7, #12]
 80011b4:	60b9      	str	r1, [r7, #8]
 80011b6:	607a      	str	r2, [r7, #4]
  uint8_t iChannel = TIM_GET_CHANNEL_INDEX(Channel);
 80011b8:	68bb      	ldr	r3, [r7, #8]
 80011ba:	2b01      	cmp	r3, #1
 80011bc:	d01c      	beq.n	80011f8 <LL_TIM_IC_SetPolarity+0x4c>
 80011be:	68bb      	ldr	r3, [r7, #8]
 80011c0:	2b04      	cmp	r3, #4
 80011c2:	d017      	beq.n	80011f4 <LL_TIM_IC_SetPolarity+0x48>
 80011c4:	68bb      	ldr	r3, [r7, #8]
 80011c6:	2b10      	cmp	r3, #16
 80011c8:	d012      	beq.n	80011f0 <LL_TIM_IC_SetPolarity+0x44>
 80011ca:	68bb      	ldr	r3, [r7, #8]
 80011cc:	2b40      	cmp	r3, #64	@ 0x40
 80011ce:	d00d      	beq.n	80011ec <LL_TIM_IC_SetPolarity+0x40>
 80011d0:	68bb      	ldr	r3, [r7, #8]
 80011d2:	f5b3 7f80 	cmp.w	r3, #256	@ 0x100
 80011d6:	d007      	beq.n	80011e8 <LL_TIM_IC_SetPolarity+0x3c>
 80011d8:	68bb      	ldr	r3, [r7, #8]
 80011da:	f5b3 6f80 	cmp.w	r3, #1024	@ 0x400
 80011de:	d101      	bne.n	80011e4 <LL_TIM_IC_SetPolarity+0x38>
 80011e0:	2305      	movs	r3, #5
 80011e2:	e00a      	b.n	80011fa <LL_TIM_IC_SetPolarity+0x4e>
 80011e4:	2306      	movs	r3, #6
 80011e6:	e008      	b.n	80011fa <LL_TIM_IC_SetPolarity+0x4e>
 80011e8:	2304      	movs	r3, #4
 80011ea:	e006      	b.n	80011fa <LL_TIM_IC_SetPolarity+0x4e>
 80011ec:	2303      	movs	r3, #3
 80011ee:	e004      	b.n	80011fa <LL_TIM_IC_SetPolarity+0x4e>
 80011f0:	2302      	movs	r3, #2
 80011f2:	e002      	b.n	80011fa <LL_TIM_IC_SetPolarity+0x4e>
 80011f4:	2301      	movs	r3, #1
 80011f6:	e000      	b.n	80011fa <LL_TIM_IC_SetPolarity+0x4e>
 80011f8:	2300      	movs	r3, #0
 80011fa:	75fb      	strb	r3, [r7, #23]
  MODIFY_REG(TIMx->CCER, ((TIM_CCER_CC1NP | TIM_CCER_CC1P) << SHIFT_TAB_CCxP[iChannel]),
 80011fc:	68fb      	ldr	r3, [r7, #12]
 80011fe:	6a1a      	ldr	r2, [r3, #32]
 8001200:	7dfb      	ldrb	r3, [r7, #23]
 8001202:	490b      	ldr	r1, [pc, #44]	@ (8001230 <LL_TIM_IC_SetPolarity+0x84>)
 8001204:	5ccb      	ldrb	r3, [r1, r3]
 8001206:	4619      	mov	r1, r3
 8001208:	230a      	movs	r3, #10
 800120a:	408b      	lsls	r3, r1
 800120c:	43db      	mvns	r3, r3
 800120e:	401a      	ands	r2, r3
 8001210:	7dfb      	ldrb	r3, [r7, #23]
 8001212:	4907      	ldr	r1, [pc, #28]	@ (8001230 <LL_TIM_IC_SetPolarity+0x84>)
 8001214:	5ccb      	ldrb	r3, [r1, r3]
 8001216:	4619      	mov	r1, r3
 8001218:	687b      	ldr	r3, [r7, #4]
 800121a:	408b      	lsls	r3, r1
 800121c:	431a      	orrs	r2, r3
 800121e:	68fb      	ldr	r3, [r7, #12]
 8001220:	621a      	str	r2, [r3, #32]
}
 8001222:	bf00      	nop
 8001224:	371c      	adds	r7, #28
 8001226:	46bd      	mov	sp, r7
 8001228:	f85d 7b04 	ldr.w	r7, [sp], #4
 800122c:	4770      	bx	lr
 800122e:	bf00      	nop
 8001230:	08002df4 	.word	0x08002df4

08001234 <LL_TIM_SetClockSource>:
{
 8001234:	b480      	push	{r7}
 8001236:	b083      	sub	sp, #12
 8001238:	af00      	add	r7, sp, #0
 800123a:	6078      	str	r0, [r7, #4]
 800123c:	6039      	str	r1, [r7, #0]
  MODIFY_REG(TIMx->SMCR, TIM_SMCR_SMS | TIM_SMCR_ECE, ClockSource);
 800123e:	687b      	ldr	r3, [r7, #4]
 8001240:	689b      	ldr	r3, [r3, #8]
 8001242:	f423 4380 	bic.w	r3, r3, #16384	@ 0x4000
 8001246:	f023 0307 	bic.w	r3, r3, #7
 800124a:	683a      	ldr	r2, [r7, #0]
 800124c:	431a      	orrs	r2, r3
 800124e:	687b      	ldr	r3, [r7, #4]
 8001250:	609a      	str	r2, [r3, #8]
}
 8001252:	bf00      	nop
 8001254:	370c      	adds	r7, #12
 8001256:	46bd      	mov	sp, r7
 8001258:	f85d 7b04 	ldr.w	r7, [sp], #4
 800125c:	4770      	bx	lr

0800125e <LL_TIM_SetEncoderMode>:
{
 800125e:	b480      	push	{r7}
 8001260:	b083      	sub	sp, #12
 8001262:	af00      	add	r7, sp, #0
 8001264:	6078      	str	r0, [r7, #4]
 8001266:	6039      	str	r1, [r7, #0]
  MODIFY_REG(TIMx->SMCR, TIM_SMCR_SMS, EncoderMode);
 8001268:	687b      	ldr	r3, [r7, #4]
 800126a:	689b      	ldr	r3, [r3, #8]
 800126c:	f023 0207 	bic.w	r2, r3, #7
 8001270:	683b      	ldr	r3, [r7, #0]
 8001272:	431a      	orrs	r2, r3
 8001274:	687b      	ldr	r3, [r7, #4]
 8001276:	609a      	str	r2, [r3, #8]
}
 8001278:	bf00      	nop
 800127a:	370c      	adds	r7, #12
 800127c:	46bd      	mov	sp, r7
 800127e:	f85d 7b04 	ldr.w	r7, [sp], #4
 8001282:	4770      	bx	lr

08001284 <LL_TIM_SetTriggerOutput>:
{
 8001284:	b480      	push	{r7}
 8001286:	b083      	sub	sp, #12
 8001288:	af00      	add	r7, sp, #0
 800128a:	6078      	str	r0, [r7, #4]
 800128c:	6039      	str	r1, [r7, #0]
  MODIFY_REG(TIMx->CR2, TIM_CR2_MMS, TimerSynchronization);
 800128e:	687b      	ldr	r3, [r7, #4]
 8001290:	685b      	ldr	r3, [r3, #4]
 8001292:	f023 0270 	bic.w	r2, r3, #112	@ 0x70
 8001296:	683b      	ldr	r3, [r7, #0]
 8001298:	431a      	orrs	r2, r3
 800129a:	687b      	ldr	r3, [r7, #4]
 800129c:	605a      	str	r2, [r3, #4]
}
 800129e:	bf00      	nop
 80012a0:	370c      	adds	r7, #12
 80012a2:	46bd      	mov	sp, r7
 80012a4:	f85d 7b04 	ldr.w	r7, [sp], #4
 80012a8:	4770      	bx	lr

080012aa <LL_TIM_SetSlaveMode>:
{
 80012aa:	b480      	push	{r7}
 80012ac:	b083      	sub	sp, #12
 80012ae:	af00      	add	r7, sp, #0
 80012b0:	6078      	str	r0, [r7, #4]
 80012b2:	6039      	str	r1, [r7, #0]
  MODIFY_REG(TIMx->SMCR, TIM_SMCR_SMS, SlaveMode);
 80012b4:	687b      	ldr	r3, [r7, #4]
 80012b6:	689b      	ldr	r3, [r3, #8]
 80012b8:	f023 0207 	bic.w	r2, r3, #7
 80012bc:	683b      	ldr	r3, [r7, #0]
 80012be:	431a      	orrs	r2, r3
 80012c0:	687b      	ldr	r3, [r7, #4]
 80012c2:	609a      	str	r2, [r3, #8]
}
 80012c4:	bf00      	nop
 80012c6:	370c      	adds	r7, #12
 80012c8:	46bd      	mov	sp, r7
 80012ca:	f85d 7b04 	ldr.w	r7, [sp], #4
 80012ce:	4770      	bx	lr

080012d0 <LL_TIM_SetTriggerInput>:
{
 80012d0:	b480      	push	{r7}
 80012d2:	b083      	sub	sp, #12
 80012d4:	af00      	add	r7, sp, #0
 80012d6:	6078      	str	r0, [r7, #4]
 80012d8:	6039      	str	r1, [r7, #0]
  MODIFY_REG(TIMx->SMCR, TIM_SMCR_TS, TriggerInput);
 80012da:	687b      	ldr	r3, [r7, #4]
 80012dc:	689b      	ldr	r3, [r3, #8]
 80012de:	f023 0270 	bic.w	r2, r3, #112	@ 0x70
 80012e2:	683b      	ldr	r3, [r7, #0]
 80012e4:	431a      	orrs	r2, r3
 80012e6:	687b      	ldr	r3, [r7, #4]
 80012e8:	609a      	str	r2, [r3, #8]
}
 80012ea:	bf00      	nop
 80012ec:	370c      	adds	r7, #12
 80012ee:	46bd      	mov	sp, r7
 80012f0:	f85d 7b04 	ldr.w	r7, [sp], #4
 80012f4:	4770      	bx	lr

080012f6 <LL_TIM_DisableMasterSlaveMode>:
{
 80012f6:	b480      	push	{r7}
 80012f8:	b083      	sub	sp, #12
 80012fa:	af00      	add	r7, sp, #0
 80012fc:	6078      	str	r0, [r7, #4]
  CLEAR_BIT(TIMx->SMCR, TIM_SMCR_MSM);
 80012fe:	687b      	ldr	r3, [r7, #4]
 8001300:	689b      	ldr	r3, [r3, #8]
 8001302:	f023 0280 	bic.w	r2, r3, #128	@ 0x80
 8001306:	687b      	ldr	r3, [r7, #4]
 8001308:	609a      	str	r2, [r3, #8]
}
 800130a:	bf00      	nop
 800130c:	370c      	adds	r7, #12
 800130e:	46bd      	mov	sp, r7
 8001310:	f85d 7b04 	ldr.w	r7, [sp], #4
 8001314:	4770      	bx	lr

08001316 <LL_TIM_EnableIT_UPDATE>:
{
 8001316:	b480      	push	{r7}
 8001318:	b083      	sub	sp, #12
 800131a:	af00      	add	r7, sp, #0
 800131c:	6078      	str	r0, [r7, #4]
  SET_BIT(TIMx->DIER, TIM_DIER_UIE);
 800131e:	687b      	ldr	r3, [r7, #4]
 8001320:	68db      	ldr	r3, [r3, #12]
 8001322:	f043 0201 	orr.w	r2, r3, #1
 8001326:	687b      	ldr	r3, [r7, #4]
 8001328:	60da      	str	r2, [r3, #12]
}
 800132a:	bf00      	nop
 800132c:	370c      	adds	r7, #12
 800132e:	46bd      	mov	sp, r7
 8001330:	f85d 7b04 	ldr.w	r7, [sp], #4
 8001334:	4770      	bx	lr

08001336 <LL_TIM_EnableIT_CC1>:
{
 8001336:	b480      	push	{r7}
 8001338:	b083      	sub	sp, #12
 800133a:	af00      	add	r7, sp, #0
 800133c:	6078      	str	r0, [r7, #4]
  SET_BIT(TIMx->DIER, TIM_DIER_CC1IE);
 800133e:	687b      	ldr	r3, [r7, #4]
 8001340:	68db      	ldr	r3, [r3, #12]
 8001342:	f043 0202 	orr.w	r2, r3, #2
 8001346:	687b      	ldr	r3, [r7, #4]
 8001348:	60da      	str	r2, [r3, #12]
}
 800134a:	bf00      	nop
 800134c:	370c      	adds	r7, #12
 800134e:	46bd      	mov	sp, r7
 8001350:	f85d 7b04 	ldr.w	r7, [sp], #4
 8001354:	4770      	bx	lr

08001356 <LL_TIM_DisableIT_TRIG>:
{
 8001356:	b480      	push	{r7}
 8001358:	b083      	sub	sp, #12
 800135a:	af00      	add	r7, sp, #0
 800135c:	6078      	str	r0, [r7, #4]
  CLEAR_BIT(TIMx->DIER, TIM_DIER_TIE);
 800135e:	687b      	ldr	r3, [r7, #4]
 8001360:	68db      	ldr	r3, [r3, #12]
 8001362:	f023 0240 	bic.w	r2, r3, #64	@ 0x40
 8001366:	687b      	ldr	r3, [r7, #4]
 8001368:	60da      	str	r2, [r3, #12]
}
 800136a:	bf00      	nop
 800136c:	370c      	adds	r7, #12
 800136e:	46bd      	mov	sp, r7
 8001370:	f85d 7b04 	ldr.w	r7, [sp], #4
 8001374:	4770      	bx	lr

08001376 <LL_TIM_DisableDMAReq_TRIG>:
{
 8001376:	b480      	push	{r7}
 8001378:	b083      	sub	sp, #12
 800137a:	af00      	add	r7, sp, #0
 800137c:	6078      	str	r0, [r7, #4]
  CLEAR_BIT(TIMx->DIER, TIM_DIER_TDE);
 800137e:	687b      	ldr	r3, [r7, #4]
 8001380:	68db      	ldr	r3, [r3, #12]
 8001382:	f423 4280 	bic.w	r2, r3, #16384	@ 0x4000
 8001386:	687b      	ldr	r3, [r7, #4]
 8001388:	60da      	str	r2, [r3, #12]
}
 800138a:	bf00      	nop
 800138c:	370c      	adds	r7, #12
 800138e:	46bd      	mov	sp, r7
 8001390:	f85d 7b04 	ldr.w	r7, [sp], #4
 8001394:	4770      	bx	lr
	...

08001398 <MX_TIM1_Init>:

TIM_HandleTypeDef htim5;

/* TIM1 init function */
void MX_TIM1_Init(void)
{
 8001398:	b580      	push	{r7, lr}
 800139a:	b08c      	sub	sp, #48	@ 0x30
 800139c:	af00      	add	r7, sp, #0

  /* USER CODE BEGIN TIM1_Init 0 */

  /* USER CODE END TIM1_Init 0 */

  LL_TIM_InitTypeDef TIM_InitStruct = {0};
 800139e:	f107 031c 	add.w	r3, r7, #28
 80013a2:	2200      	movs	r2, #0
 80013a4:	601a      	str	r2, [r3, #0]
 80013a6:	605a      	str	r2, [r3, #4]
 80013a8:	609a      	str	r2, [r3, #8]
 80013aa:	60da      	str	r2, [r3, #12]
 80013ac:	611a      	str	r2, [r3, #16]

  LL_GPIO_InitTypeDef GPIO_InitStruct = {0};
 80013ae:	1d3b      	adds	r3, r7, #4
 80013b0:	2200      	movs	r2, #0
 80013b2:	601a      	str	r2, [r3, #0]
 80013b4:	605a      	str	r2, [r3, #4]
 80013b6:	609a      	str	r2, [r3, #8]
 80013b8:	60da      	str	r2, [r3, #12]
 80013ba:	611a      	str	r2, [r3, #16]
 80013bc:	615a      	str	r2, [r3, #20]

  /* Peripheral clock enable */
  LL_APB2_GRP1_EnableClock(LL_APB2_GRP1_PERIPH_TIM1);
 80013be:	2001      	movs	r0, #1
 80013c0:	f7ff fd58 	bl	8000e74 <LL_APB2_GRP1_EnableClock>

  LL_AHB1_GRP1_EnableClock(LL_AHB1_GRP1_PERIPH_GPIOE);
 80013c4:	2010      	movs	r0, #16
 80013c6:	f7ff fd25 	bl	8000e14 <LL_AHB1_GRP1_EnableClock>
  /**TIM1 GPIO Configuration
  PE9   ------> TIM1_CH1
  PE11   ------> TIM1_CH2
  */
  GPIO_InitStruct.Pin = LL_GPIO_PIN_9|LL_GPIO_PIN_11;
 80013ca:	f44f 6320 	mov.w	r3, #2560	@ 0xa00
 80013ce:	607b      	str	r3, [r7, #4]
  GPIO_InitStruct.Mode = LL_GPIO_MODE_ALTERNATE;
 80013d0:	2302      	movs	r3, #2
 80013d2:	60bb      	str	r3, [r7, #8]
  GPIO_InitStruct.Speed = LL_GPIO_SPEED_FREQ_LOW;
 80013d4:	2300      	movs	r3, #0
 80013d6:	60fb      	str	r3, [r7, #12]
  GPIO_InitStruct.OutputType = LL_GPIO_OUTPUT_PUSHPULL;
 80013d8:	2300      	movs	r3, #0
 80013da:	613b      	str	r3, [r7, #16]
  GPIO_InitStruct.Pull = LL_GPIO_PULL_UP;
 80013dc:	2301      	movs	r3, #1
 80013de:	617b      	str	r3, [r7, #20]
  GPIO_InitStruct.Alternate = LL_GPIO_AF_1;
 80013e0:	2301      	movs	r3, #1
 80013e2:	61bb      	str	r3, [r7, #24]
  LL_GPIO_Init(GPIOE, &GPIO_InitStruct);
 80013e4:	1d3b      	adds	r3, r7, #4
 80013e6:	4619      	mov	r1, r3
 80013e8:	4830      	ldr	r0, [pc, #192]	@ (80014ac <MX_TIM1_Init+0x114>)
 80013ea:	f001 f93b 	bl	8002664 <LL_GPIO_Init>

  /* TIM1 interrupt Init */
  NVIC_SetPriority(TIM1_UP_TIM10_IRQn, NVIC_EncodePriority(NVIC_GetPriorityGrouping(),0, 0));
 80013ee:	f7ff fc87 	bl	8000d00 <__NVIC_GetPriorityGrouping>
 80013f2:	4603      	mov	r3, r0
 80013f4:	2200      	movs	r2, #0
 80013f6:	2100      	movs	r1, #0
 80013f8:	4618      	mov	r0, r3
 80013fa:	f7ff fcd7 	bl	8000dac <NVIC_EncodePriority>
 80013fe:	4603      	mov	r3, r0
 8001400:	4619      	mov	r1, r3
 8001402:	2019      	movs	r0, #25
 8001404:	f7ff fca8 	bl	8000d58 <__NVIC_SetPriority>
  NVIC_EnableIRQ(TIM1_UP_TIM10_IRQn);
 8001408:	2019      	movs	r0, #25
 800140a:	f7ff fc87 	bl	8000d1c <__NVIC_EnableIRQ>

  /* USER CODE BEGIN TIM1_Init 1 */

  /* USER CODE END TIM1_Init 1 */
  LL_TIM_SetEncoderMode(TIM1, LL_TIM_ENCODERMODE_X2_TI1);
 800140e:	2101      	movs	r1, #1
 8001410:	4827      	ldr	r0, [pc, #156]	@ (80014b0 <MX_TIM1_Init+0x118>)
 8001412:	f7ff ff24 	bl	800125e <LL_TIM_SetEncoderMode>
  LL_TIM_IC_SetActiveInput(TIM1, LL_TIM_CHANNEL_CH1, LL_TIM_ACTIVEINPUT_DIRECTTI);
 8001416:	f44f 3280 	mov.w	r2, #65536	@ 0x10000
 800141a:	2101      	movs	r1, #1
 800141c:	4824      	ldr	r0, [pc, #144]	@ (80014b0 <MX_TIM1_Init+0x118>)
 800141e:	f7ff fddb 	bl	8000fd8 <LL_TIM_IC_SetActiveInput>
  LL_TIM_IC_SetPrescaler(TIM1, LL_TIM_CHANNEL_CH1, LL_TIM_ICPSC_DIV1);
 8001422:	2200      	movs	r2, #0
 8001424:	2101      	movs	r1, #1
 8001426:	4822      	ldr	r0, [pc, #136]	@ (80014b0 <MX_TIM1_Init+0x118>)
 8001428:	f7ff fe24 	bl	8001074 <LL_TIM_IC_SetPrescaler>
  LL_TIM_IC_SetFilter(TIM1, LL_TIM_CHANNEL_CH1, LL_TIM_IC_FILTER_FDIV8_N6);
 800142c:	f44f 0200 	mov.w	r2, #8388608	@ 0x800000
 8001430:	2101      	movs	r1, #1
 8001432:	481f      	ldr	r0, [pc, #124]	@ (80014b0 <MX_TIM1_Init+0x118>)
 8001434:	f7ff fe6c 	bl	8001110 <LL_TIM_IC_SetFilter>
  LL_TIM_IC_SetPolarity(TIM1, LL_TIM_CHANNEL_CH1, LL_TIM_IC_POLARITY_RISING);
 8001438:	2200      	movs	r2, #0
 800143a:	2101      	movs	r1, #1
 800143c:	481c      	ldr	r0, [pc, #112]	@ (80014b0 <MX_TIM1_Init+0x118>)
 800143e:	f7ff feb5 	bl	80011ac <LL_TIM_IC_SetPolarity>
  LL_TIM_IC_SetActiveInput(TIM1, LL_TIM_CHANNEL_CH2, LL_TIM_ACTIVEINPUT_DIRECTTI);
 8001442:	f44f 3280 	mov.w	r2, #65536	@ 0x10000
 8001446:	2110      	movs	r1, #16
 8001448:	4819      	ldr	r0, [pc, #100]	@ (80014b0 <MX_TIM1_Init+0x118>)
 800144a:	f7ff fdc5 	bl	8000fd8 <LL_TIM_IC_SetActiveInput>
  LL_TIM_IC_SetPrescaler(TIM1, LL_TIM_CHANNEL_CH2, LL_TIM_ICPSC_DIV1);
 800144e:	2200      	movs	r2, #0
 8001450:	2110      	movs	r1, #16
 8001452:	4817      	ldr	r0, [pc, #92]	@ (80014b0 <MX_TIM1_Init+0x118>)
 8001454:	f7ff fe0e 	bl	8001074 <LL_TIM_IC_SetPrescaler>
  LL_TIM_IC_SetFilter(TIM1, LL_TIM_CHANNEL_CH2, LL_TIM_IC_FILTER_FDIV8_N6);
 8001458:	f44f 0200 	mov.w	r2, #8388608	@ 0x800000
 800145c:	2110      	movs	r1, #16
 800145e:	4814      	ldr	r0, [pc, #80]	@ (80014b0 <MX_TIM1_Init+0x118>)
 8001460:	f7ff fe56 	bl	8001110 <LL_TIM_IC_SetFilter>
  LL_TIM_IC_SetPolarity(TIM1, LL_TIM_CHANNEL_CH2, LL_TIM_IC_POLARITY_RISING);
 8001464:	2200      	movs	r2, #0
 8001466:	2110      	movs	r1, #16
 8001468:	4811      	ldr	r0, [pc, #68]	@ (80014b0 <MX_TIM1_Init+0x118>)
 800146a:	f7ff fe9f 	bl	80011ac <LL_TIM_IC_SetPolarity>
  TIM_InitStruct.Prescaler = 0;
 800146e:	2300      	movs	r3, #0
 8001470:	83bb      	strh	r3, [r7, #28]
  TIM_InitStruct.CounterMode = LL_TIM_COUNTERMODE_UP;
 8001472:	2300      	movs	r3, #0
 8001474:	623b      	str	r3, [r7, #32]
  TIM_InitStruct.Autoreload = 65535;
 8001476:	f64f 73ff 	movw	r3, #65535	@ 0xffff
 800147a:	627b      	str	r3, [r7, #36]	@ 0x24
  TIM_InitStruct.ClockDivision = LL_TIM_CLOCKDIVISION_DIV1;
 800147c:	2300      	movs	r3, #0
 800147e:	62bb      	str	r3, [r7, #40]	@ 0x28
  TIM_InitStruct.RepetitionCounter = 0;
 8001480:	2300      	movs	r3, #0
 8001482:	62fb      	str	r3, [r7, #44]	@ 0x2c
  LL_TIM_Init(TIM1, &TIM_InitStruct);
 8001484:	f107 031c 	add.w	r3, r7, #28
 8001488:	4619      	mov	r1, r3
 800148a:	4809      	ldr	r0, [pc, #36]	@ (80014b0 <MX_TIM1_Init+0x118>)
 800148c:	f001 f9de 	bl	800284c <LL_TIM_Init>
  LL_TIM_DisableARRPreload(TIM1);
 8001490:	4807      	ldr	r0, [pc, #28]	@ (80014b0 <MX_TIM1_Init+0x118>)
 8001492:	f7ff fd07 	bl	8000ea4 <LL_TIM_DisableARRPreload>
  LL_TIM_SetTriggerOutput(TIM1, LL_TIM_TRGO_RESET);
 8001496:	2100      	movs	r1, #0
 8001498:	4805      	ldr	r0, [pc, #20]	@ (80014b0 <MX_TIM1_Init+0x118>)
 800149a:	f7ff fef3 	bl	8001284 <LL_TIM_SetTriggerOutput>
  LL_TIM_DisableMasterSlaveMode(TIM1);
 800149e:	4804      	ldr	r0, [pc, #16]	@ (80014b0 <MX_TIM1_Init+0x118>)
 80014a0:	f7ff ff29 	bl	80012f6 <LL_TIM_DisableMasterSlaveMode>
  /* USER CODE BEGIN TIM1_Init 2 */

  /* USER CODE END TIM1_Init 2 */

}
 80014a4:	bf00      	nop
 80014a6:	3730      	adds	r7, #48	@ 0x30
 80014a8:	46bd      	mov	sp, r7
 80014aa:	bd80      	pop	{r7, pc}
 80014ac:	40021000 	.word	0x40021000
 80014b0:	40010000 	.word	0x40010000

080014b4 <MX_TIM2_Init>:
/* TIM2 init function */
void MX_TIM2_Init(void)
{
 80014b4:	b580      	push	{r7, lr}
 80014b6:	b094      	sub	sp, #80	@ 0x50
 80014b8:	af00      	add	r7, sp, #0

  /* USER CODE BEGIN TIM2_Init 0 */

  /* USER CODE END TIM2_Init 0 */

  LL_TIM_InitTypeDef TIM_InitStruct = {0};
 80014ba:	f107 033c 	add.w	r3, r7, #60	@ 0x3c
 80014be:	2200      	movs	r2, #0
 80014c0:	601a      	str	r2, [r3, #0]
 80014c2:	605a      	str	r2, [r3, #4]
 80014c4:	609a      	str	r2, [r3, #8]
 80014c6:	60da      	str	r2, [r3, #12]
 80014c8:	611a      	str	r2, [r3, #16]
  LL_TIM_OC_InitTypeDef TIM_OC_InitStruct = {0};
 80014ca:	f107 031c 	add.w	r3, r7, #28
 80014ce:	2220      	movs	r2, #32
 80014d0:	2100      	movs	r1, #0
 80014d2:	4618      	mov	r0, r3
 80014d4:	f001 fc4a 	bl	8002d6c <memset>

  LL_GPIO_InitTypeDef GPIO_InitStruct = {0};
 80014d8:	1d3b      	adds	r3, r7, #4
 80014da:	2200      	movs	r2, #0
 80014dc:	601a      	str	r2, [r3, #0]
 80014de:	605a      	str	r2, [r3, #4]
 80014e0:	609a      	str	r2, [r3, #8]
 80014e2:	60da      	str	r2, [r3, #12]
 80014e4:	611a      	str	r2, [r3, #16]
 80014e6:	615a      	str	r2, [r3, #20]
  /* Peripheral clock enable */
  LL_APB1_GRP1_EnableClock(LL_APB1_GRP1_PERIPH_TIM2);
 80014e8:	2001      	movs	r0, #1
 80014ea:	f7ff fcab 	bl	8000e44 <LL_APB1_GRP1_EnableClock>

  /* USER CODE BEGIN TIM2_Init 1 */

  /* USER CODE END TIM2_Init 1 */
  TIM_InitStruct.Prescaler = 16;
 80014ee:	2310      	movs	r3, #16
 80014f0:	87bb      	strh	r3, [r7, #60]	@ 0x3c
  TIM_InitStruct.CounterMode = LL_TIM_COUNTERMODE_UP;
 80014f2:	2300      	movs	r3, #0
 80014f4:	643b      	str	r3, [r7, #64]	@ 0x40
  TIM_InitStruct.Autoreload = 9999;
 80014f6:	f242 730f 	movw	r3, #9999	@ 0x270f
 80014fa:	647b      	str	r3, [r7, #68]	@ 0x44
  TIM_InitStruct.ClockDivision = LL_TIM_CLOCKDIVISION_DIV1;
 80014fc:	2300      	movs	r3, #0
 80014fe:	64bb      	str	r3, [r7, #72]	@ 0x48
  LL_TIM_Init(TIM2, &TIM_InitStruct);
 8001500:	f107 033c 	add.w	r3, r7, #60	@ 0x3c
 8001504:	4619      	mov	r1, r3
 8001506:	f04f 4080 	mov.w	r0, #1073741824	@ 0x40000000
 800150a:	f001 f99f 	bl	800284c <LL_TIM_Init>
  LL_TIM_DisableARRPreload(TIM2);
 800150e:	f04f 4080 	mov.w	r0, #1073741824	@ 0x40000000
 8001512:	f7ff fcc7 	bl	8000ea4 <LL_TIM_DisableARRPreload>
  LL_TIM_SetClockSource(TIM2, LL_TIM_CLOCKSOURCE_INTERNAL);
 8001516:	2100      	movs	r1, #0
 8001518:	f04f 4080 	mov.w	r0, #1073741824	@ 0x40000000
 800151c:	f7ff fe8a 	bl	8001234 <LL_TIM_SetClockSource>
  LL_TIM_OC_EnablePreload(TIM2, LL_TIM_CHANNEL_CH1);
 8001520:	2101      	movs	r1, #1
 8001522:	f04f 4080 	mov.w	r0, #1073741824	@ 0x40000000
 8001526:	f7ff fd13 	bl	8000f50 <LL_TIM_OC_EnablePreload>
  TIM_OC_InitStruct.OCMode = LL_TIM_OCMODE_PWM1;
 800152a:	2360      	movs	r3, #96	@ 0x60
 800152c:	61fb      	str	r3, [r7, #28]
  TIM_OC_InitStruct.OCState = LL_TIM_OCSTATE_DISABLE;
 800152e:	2300      	movs	r3, #0
 8001530:	623b      	str	r3, [r7, #32]
  TIM_OC_InitStruct.OCNState = LL_TIM_OCSTATE_DISABLE;
 8001532:	2300      	movs	r3, #0
 8001534:	627b      	str	r3, [r7, #36]	@ 0x24
  TIM_OC_InitStruct.CompareValue = 4999;
 8001536:	f241 3387 	movw	r3, #4999	@ 0x1387
 800153a:	62bb      	str	r3, [r7, #40]	@ 0x28
  TIM_OC_InitStruct.OCPolarity = LL_TIM_OCPOLARITY_HIGH;
 800153c:	2300      	movs	r3, #0
 800153e:	62fb      	str	r3, [r7, #44]	@ 0x2c
  LL_TIM_OC_Init(TIM2, LL_TIM_CHANNEL_CH1, &TIM_OC_InitStruct);
 8001540:	f107 031c 	add.w	r3, r7, #28
 8001544:	461a      	mov	r2, r3
 8001546:	2101      	movs	r1, #1
 8001548:	f04f 4080 	mov.w	r0, #1073741824	@ 0x40000000
 800154c:	f001 fa18 	bl	8002980 <LL_TIM_OC_Init>
  LL_TIM_OC_DisableFast(TIM2, LL_TIM_CHANNEL_CH1);
 8001550:	2101      	movs	r1, #1
 8001552:	f04f 4080 	mov.w	r0, #1073741824	@ 0x40000000
 8001556:	f7ff fcb5 	bl	8000ec4 <LL_TIM_OC_DisableFast>
  TIM_OC_InitStruct.OCMode = LL_TIM_OCMODE_ACTIVE;
 800155a:	2310      	movs	r3, #16
 800155c:	61fb      	str	r3, [r7, #28]
  TIM_OC_InitStruct.CompareValue = 2499;
 800155e:	f640 13c3 	movw	r3, #2499	@ 0x9c3
 8001562:	62bb      	str	r3, [r7, #40]	@ 0x28
  LL_TIM_OC_Init(TIM2, LL_TIM_CHANNEL_CH2, &TIM_OC_InitStruct);
 8001564:	f107 031c 	add.w	r3, r7, #28
 8001568:	461a      	mov	r2, r3
 800156a:	2110      	movs	r1, #16
 800156c:	f04f 4080 	mov.w	r0, #1073741824	@ 0x40000000
 8001570:	f001 fa06 	bl	8002980 <LL_TIM_OC_Init>
  LL_TIM_OC_DisableFast(TIM2, LL_TIM_CHANNEL_CH2);
 8001574:	2110      	movs	r1, #16
 8001576:	f04f 4080 	mov.w	r0, #1073741824	@ 0x40000000
 800157a:	f7ff fca3 	bl	8000ec4 <LL_TIM_OC_DisableFast>
  LL_TIM_SetTriggerOutput(TIM2, LL_TIM_TRGO_OC2REF);
 800157e:	2150      	movs	r1, #80	@ 0x50
 8001580:	f04f 4080 	mov.w	r0, #1073741824	@ 0x40000000
 8001584:	f7ff fe7e 	bl	8001284 <LL_TIM_SetTriggerOutput>
  LL_TIM_DisableMasterSlaveMode(TIM2);
 8001588:	f04f 4080 	mov.w	r0, #1073741824	@ 0x40000000
 800158c:	f7ff feb3 	bl	80012f6 <LL_TIM_DisableMasterSlaveMode>
  /* USER CODE BEGIN TIM2_Init 2 */

  /* USER CODE END TIM2_Init 2 */
  LL_AHB1_GRP1_EnableClock(LL_AHB1_GRP1_PERIPH_GPIOA);
 8001590:	2001      	movs	r0, #1
 8001592:	f7ff fc3f 	bl	8000e14 <LL_AHB1_GRP1_EnableClock>
    /**TIM2 GPIO Configuration
    PA5     ------> TIM2_CH1
    */
  GPIO_InitStruct.Pin = LL_GPIO_PIN_5;
 8001596:	2320      	movs	r3, #32
 8001598:	607b      	str	r3, [r7, #4]
  GPIO_InitStruct.Mode = LL_GPIO_MODE_ALTERNATE;
 800159a:	2302      	movs	r3, #2
 800159c:	60bb      	str	r3, [r7, #8]
  GPIO_InitStruct.Speed = LL_GPIO_SPEED_FREQ_LOW;
 800159e:	2300      	movs	r3, #0
 80015a0:	60fb      	str	r3, [r7, #12]
  GPIO_InitStruct.OutputType = LL_GPIO_OUTPUT_PUSHPULL;
 80015a2:	2300      	movs	r3, #0
 80015a4:	613b      	str	r3, [r7, #16]
  GPIO_InitStruct.Pull = LL_GPIO_PULL_NO;
 80015a6:	2300      	movs	r3, #0
 80015a8:	617b      	str	r3, [r7, #20]
  GPIO_InitStruct.Alternate = LL_GPIO_AF_1;
 80015aa:	2301      	movs	r3, #1
 80015ac:	61bb      	str	r3, [r7, #24]
  LL_GPIO_Init(GPIOA, &GPIO_InitStruct);
 80015ae:	1d3b      	adds	r3, r7, #4
 80015b0:	4619      	mov	r1, r3
 80015b2:	4803      	ldr	r0, [pc, #12]	@ (80015c0 <MX_TIM2_Init+0x10c>)
 80015b4:	f001 f856 	bl	8002664 <LL_GPIO_Init>

}
 80015b8:	bf00      	nop
 80015ba:	3750      	adds	r7, #80	@ 0x50
 80015bc:	46bd      	mov	sp, r7
 80015be:	bd80      	pop	{r7, pc}
 80015c0:	40020000 	.word	0x40020000

080015c4 <MX_TIM3_Init>:
/* TIM3 init function */
void MX_TIM3_Init(void)
{
 80015c4:	b580      	push	{r7, lr}
 80015c6:	b094      	sub	sp, #80	@ 0x50
 80015c8:	af00      	add	r7, sp, #0

  /* USER CODE BEGIN TIM3_Init 0 */

  /* USER CODE END TIM3_Init 0 */

  LL_TIM_InitTypeDef TIM_InitStruct = {0};
 80015ca:	f107 033c 	add.w	r3, r7, #60	@ 0x3c
 80015ce:	2200      	movs	r2, #0
 80015d0:	601a      	str	r2, [r3, #0]
 80015d2:	605a      	str	r2, [r3, #4]
 80015d4:	609a      	str	r2, [r3, #8]
 80015d6:	60da      	str	r2, [r3, #12]
 80015d8:	611a      	str	r2, [r3, #16]
  LL_TIM_OC_InitTypeDef TIM_OC_InitStruct = {0};
 80015da:	f107 031c 	add.w	r3, r7, #28
 80015de:	2220      	movs	r2, #32
 80015e0:	2100      	movs	r1, #0
 80015e2:	4618      	mov	r0, r3
 80015e4:	f001 fbc2 	bl	8002d6c <memset>

  LL_GPIO_InitTypeDef GPIO_InitStruct = {0};
 80015e8:	1d3b      	adds	r3, r7, #4
 80015ea:	2200      	movs	r2, #0
 80015ec:	601a      	str	r2, [r3, #0]
 80015ee:	605a      	str	r2, [r3, #4]
 80015f0:	609a      	str	r2, [r3, #8]
 80015f2:	60da      	str	r2, [r3, #12]
 80015f4:	611a      	str	r2, [r3, #16]
 80015f6:	615a      	str	r2, [r3, #20]
  /* Peripheral clock enable */
  LL_APB1_GRP1_EnableClock(LL_APB1_GRP1_PERIPH_TIM3);
 80015f8:	2002      	movs	r0, #2
 80015fa:	f7ff fc23 	bl	8000e44 <LL_APB1_GRP1_EnableClock>

  /* USER CODE BEGIN TIM3_Init 1 */

  /* USER CODE END TIM3_Init 1 */
  TIM_InitStruct.Prescaler = 16;
 80015fe:	2310      	movs	r3, #16
 8001600:	87bb      	strh	r3, [r7, #60]	@ 0x3c
  TIM_InitStruct.CounterMode = LL_TIM_COUNTERMODE_UP;
 8001602:	2300      	movs	r3, #0
 8001604:	643b      	str	r3, [r7, #64]	@ 0x40
  TIM_InitStruct.Autoreload = 9999;
 8001606:	f242 730f 	movw	r3, #9999	@ 0x270f
 800160a:	647b      	str	r3, [r7, #68]	@ 0x44
  TIM_InitStruct.ClockDivision = LL_TIM_CLOCKDIVISION_DIV1;
 800160c:	2300      	movs	r3, #0
 800160e:	64bb      	str	r3, [r7, #72]	@ 0x48
  LL_TIM_Init(TIM3, &TIM_InitStruct);
 8001610:	f107 033c 	add.w	r3, r7, #60	@ 0x3c
 8001614:	4619      	mov	r1, r3
 8001616:	4828      	ldr	r0, [pc, #160]	@ (80016b8 <MX_TIM3_Init+0xf4>)
 8001618:	f001 f918 	bl	800284c <LL_TIM_Init>
  LL_TIM_DisableARRPreload(TIM3);
 800161c:	4826      	ldr	r0, [pc, #152]	@ (80016b8 <MX_TIM3_Init+0xf4>)
 800161e:	f7ff fc41 	bl	8000ea4 <LL_TIM_DisableARRPreload>
  LL_TIM_SetClockSource(TIM3, LL_TIM_CLOCKSOURCE_INTERNAL);
 8001622:	2100      	movs	r1, #0
 8001624:	4824      	ldr	r0, [pc, #144]	@ (80016b8 <MX_TIM3_Init+0xf4>)
 8001626:	f7ff fe05 	bl	8001234 <LL_TIM_SetClockSource>
  LL_TIM_OC_EnablePreload(TIM3, LL_TIM_CHANNEL_CH1);
 800162a:	2101      	movs	r1, #1
 800162c:	4822      	ldr	r0, [pc, #136]	@ (80016b8 <MX_TIM3_Init+0xf4>)
 800162e:	f7ff fc8f 	bl	8000f50 <LL_TIM_OC_EnablePreload>
  TIM_OC_InitStruct.OCMode = LL_TIM_OCMODE_PWM1;
 8001632:	2360      	movs	r3, #96	@ 0x60
 8001634:	61fb      	str	r3, [r7, #28]
  TIM_OC_InitStruct.OCState = LL_TIM_OCSTATE_DISABLE;
 8001636:	2300      	movs	r3, #0
 8001638:	623b      	str	r3, [r7, #32]
  TIM_OC_InitStruct.OCNState = LL_TIM_OCSTATE_DISABLE;
 800163a:	2300      	movs	r3, #0
 800163c:	627b      	str	r3, [r7, #36]	@ 0x24
  TIM_OC_InitStruct.CompareValue = 4999;
 800163e:	f241 3387 	movw	r3, #4999	@ 0x1387
 8001642:	62bb      	str	r3, [r7, #40]	@ 0x28
  TIM_OC_InitStruct.OCPolarity = LL_TIM_OCPOLARITY_HIGH;
 8001644:	2300      	movs	r3, #0
 8001646:	62fb      	str	r3, [r7, #44]	@ 0x2c
  LL_TIM_OC_Init(TIM3, LL_TIM_CHANNEL_CH1, &TIM_OC_InitStruct);
 8001648:	f107 031c 	add.w	r3, r7, #28
 800164c:	461a      	mov	r2, r3
 800164e:	2101      	movs	r1, #1
 8001650:	4819      	ldr	r0, [pc, #100]	@ (80016b8 <MX_TIM3_Init+0xf4>)
 8001652:	f001 f995 	bl	8002980 <LL_TIM_OC_Init>
  LL_TIM_OC_DisableFast(TIM3, LL_TIM_CHANNEL_CH1);
 8001656:	2101      	movs	r1, #1
 8001658:	4817      	ldr	r0, [pc, #92]	@ (80016b8 <MX_TIM3_Init+0xf4>)
 800165a:	f7ff fc33 	bl	8000ec4 <LL_TIM_OC_DisableFast>
  LL_TIM_SetTriggerInput(TIM3, LL_TIM_TS_ITR1);
 800165e:	2110      	movs	r1, #16
 8001660:	4815      	ldr	r0, [pc, #84]	@ (80016b8 <MX_TIM3_Init+0xf4>)
 8001662:	f7ff fe35 	bl	80012d0 <LL_TIM_SetTriggerInput>
  LL_TIM_SetSlaveMode(TIM3, LL_TIM_SLAVEMODE_TRIGGER);
 8001666:	2106      	movs	r1, #6
 8001668:	4813      	ldr	r0, [pc, #76]	@ (80016b8 <MX_TIM3_Init+0xf4>)
 800166a:	f7ff fe1e 	bl	80012aa <LL_TIM_SetSlaveMode>
  LL_TIM_DisableIT_TRIG(TIM3);
 800166e:	4812      	ldr	r0, [pc, #72]	@ (80016b8 <MX_TIM3_Init+0xf4>)
 8001670:	f7ff fe71 	bl	8001356 <LL_TIM_DisableIT_TRIG>
  LL_TIM_DisableDMAReq_TRIG(TIM3);
 8001674:	4810      	ldr	r0, [pc, #64]	@ (80016b8 <MX_TIM3_Init+0xf4>)
 8001676:	f7ff fe7e 	bl	8001376 <LL_TIM_DisableDMAReq_TRIG>
  LL_TIM_SetTriggerOutput(TIM3, LL_TIM_TRGO_RESET);
 800167a:	2100      	movs	r1, #0
 800167c:	480e      	ldr	r0, [pc, #56]	@ (80016b8 <MX_TIM3_Init+0xf4>)
 800167e:	f7ff fe01 	bl	8001284 <LL_TIM_SetTriggerOutput>
  LL_TIM_DisableMasterSlaveMode(TIM3);
 8001682:	480d      	ldr	r0, [pc, #52]	@ (80016b8 <MX_TIM3_Init+0xf4>)
 8001684:	f7ff fe37 	bl	80012f6 <LL_TIM_DisableMasterSlaveMode>
  /* USER CODE BEGIN TIM3_Init 2 */

  /* USER CODE END TIM3_Init 2 */
  LL_AHB1_GRP1_EnableClock(LL_AHB1_GRP1_PERIPH_GPIOA);
 8001688:	2001      	movs	r0, #1
 800168a:	f7ff fbc3 	bl	8000e14 <LL_AHB1_GRP1_EnableClock>
    /**TIM3 GPIO Configuration
    PA6     ------> TIM3_CH1
    */
  GPIO_InitStruct.Pin = LL_GPIO_PIN_6;
 800168e:	2340      	movs	r3, #64	@ 0x40
 8001690:	607b      	str	r3, [r7, #4]
  GPIO_InitStruct.Mode = LL_GPIO_MODE_ALTERNATE;
 8001692:	2302      	movs	r3, #2
 8001694:	60bb      	str	r3, [r7, #8]
  GPIO_InitStruct.Speed = LL_GPIO_SPEED_FREQ_LOW;
 8001696:	2300      	movs	r3, #0
 8001698:	60fb      	str	r3, [r7, #12]
  GPIO_InitStruct.OutputType = LL_GPIO_OUTPUT_PUSHPULL;
 800169a:	2300      	movs	r3, #0
 800169c:	613b      	str	r3, [r7, #16]
  GPIO_InitStruct.Pull = LL_GPIO_PULL_NO;
 800169e:	2300      	movs	r3, #0
 80016a0:	617b      	str	r3, [r7, #20]
  GPIO_InitStruct.Alternate = LL_GPIO_AF_2;
 80016a2:	2302      	movs	r3, #2
 80016a4:	61bb      	str	r3, [r7, #24]
  LL_GPIO_Init(GPIOA, &GPIO_InitStruct);
 80016a6:	1d3b      	adds	r3, r7, #4
 80016a8:	4619      	mov	r1, r3
 80016aa:	4804      	ldr	r0, [pc, #16]	@ (80016bc <MX_TIM3_Init+0xf8>)
 80016ac:	f000 ffda 	bl	8002664 <LL_GPIO_Init>

}
 80016b0:	bf00      	nop
 80016b2:	3750      	adds	r7, #80	@ 0x50
 80016b4:	46bd      	mov	sp, r7
 80016b6:	bd80      	pop	{r7, pc}
 80016b8:	40000400 	.word	0x40000400
 80016bc:	40020000 	.word	0x40020000

080016c0 <MX_TIM4_Init>:
/* TIM4 init function */
void MX_TIM4_Init(void)
{
 80016c0:	b580      	push	{r7, lr}
 80016c2:	b08c      	sub	sp, #48	@ 0x30
 80016c4:	af00      	add	r7, sp, #0

  /* USER CODE BEGIN TIM4_Init 0 */

  /* USER CODE END TIM4_Init 0 */

  LL_TIM_InitTypeDef TIM_InitStruct = {0};
 80016c6:	f107 031c 	add.w	r3, r7, #28
 80016ca:	2200      	movs	r2, #0
 80016cc:	601a      	str	r2, [r3, #0]
 80016ce:	605a      	str	r2, [r3, #4]
 80016d0:	609a      	str	r2, [r3, #8]
 80016d2:	60da      	str	r2, [r3, #12]
 80016d4:	611a      	str	r2, [r3, #16]

  LL_GPIO_InitTypeDef GPIO_InitStruct = {0};
 80016d6:	1d3b      	adds	r3, r7, #4
 80016d8:	2200      	movs	r2, #0
 80016da:	601a      	str	r2, [r3, #0]
 80016dc:	605a      	str	r2, [r3, #4]
 80016de:	609a      	str	r2, [r3, #8]
 80016e0:	60da      	str	r2, [r3, #12]
 80016e2:	611a      	str	r2, [r3, #16]
 80016e4:	615a      	str	r2, [r3, #20]

  /* Peripheral clock enable */
  LL_APB1_GRP1_EnableClock(LL_APB1_GRP1_PERIPH_TIM4);
 80016e6:	2004      	movs	r0, #4
 80016e8:	f7ff fbac 	bl	8000e44 <LL_APB1_GRP1_EnableClock>

  LL_AHB1_GRP1_EnableClock(LL_AHB1_GRP1_PERIPH_GPIOD);
 80016ec:	2008      	movs	r0, #8
 80016ee:	f7ff fb91 	bl	8000e14 <LL_AHB1_GRP1_EnableClock>
  /**TIM4 GPIO Configuration
  PD12   ------> TIM4_CH1
  */
  GPIO_InitStruct.Pin = LL_GPIO_PIN_12;
 80016f2:	f44f 5380 	mov.w	r3, #4096	@ 0x1000
 80016f6:	607b      	str	r3, [r7, #4]
  GPIO_InitStruct.Mode = LL_GPIO_MODE_ALTERNATE;
 80016f8:	2302      	movs	r3, #2
 80016fa:	60bb      	str	r3, [r7, #8]
  GPIO_InitStruct.Speed = LL_GPIO_SPEED_FREQ_LOW;
 80016fc:	2300      	movs	r3, #0
 80016fe:	60fb      	str	r3, [r7, #12]
  GPIO_InitStruct.OutputType = LL_GPIO_OUTPUT_PUSHPULL;
 8001700:	2300      	movs	r3, #0
 8001702:	613b      	str	r3, [r7, #16]
  GPIO_InitStruct.Pull = LL_GPIO_PULL_NO;
 8001704:	2300      	movs	r3, #0
 8001706:	617b      	str	r3, [r7, #20]
  GPIO_InitStruct.Alternate = LL_GPIO_AF_2;
 8001708:	2302      	movs	r3, #2
 800170a:	61bb      	str	r3, [r7, #24]
  LL_GPIO_Init(GPIOD, &GPIO_InitStruct);
 800170c:	1d3b      	adds	r3, r7, #4
 800170e:	4619      	mov	r1, r3
 8001710:	4826      	ldr	r0, [pc, #152]	@ (80017ac <MX_TIM4_Init+0xec>)
 8001712:	f000 ffa7 	bl	8002664 <LL_GPIO_Init>

  /* TIM4 interrupt Init */
  NVIC_SetPriority(TIM4_IRQn, NVIC_EncodePriority(NVIC_GetPriorityGrouping(),0, 0));
 8001716:	f7ff faf3 	bl	8000d00 <__NVIC_GetPriorityGrouping>
 800171a:	4603      	mov	r3, r0
 800171c:	2200      	movs	r2, #0
 800171e:	2100      	movs	r1, #0
 8001720:	4618      	mov	r0, r3
 8001722:	f7ff fb43 	bl	8000dac <NVIC_EncodePriority>
 8001726:	4603      	mov	r3, r0
 8001728:	4619      	mov	r1, r3
 800172a:	201e      	movs	r0, #30
 800172c:	f7ff fb14 	bl	8000d58 <__NVIC_SetPriority>
  NVIC_EnableIRQ(TIM4_IRQn);
 8001730:	201e      	movs	r0, #30
 8001732:	f7ff faf3 	bl	8000d1c <__NVIC_EnableIRQ>

  /* USER CODE BEGIN TIM4_Init 1 */

  /* USER CODE END TIM4_Init 1 */
  TIM_InitStruct.Prescaler = 79;
 8001736:	234f      	movs	r3, #79	@ 0x4f
 8001738:	83bb      	strh	r3, [r7, #28]
  TIM_InitStruct.CounterMode = LL_TIM_COUNTERMODE_UP;
 800173a:	2300      	movs	r3, #0
 800173c:	623b      	str	r3, [r7, #32]
  TIM_InitStruct.Autoreload = 65535;
 800173e:	f64f 73ff 	movw	r3, #65535	@ 0xffff
 8001742:	627b      	str	r3, [r7, #36]	@ 0x24
  TIM_InitStruct.ClockDivision = LL_TIM_CLOCKDIVISION_DIV1;
 8001744:	2300      	movs	r3, #0
 8001746:	62bb      	str	r3, [r7, #40]	@ 0x28
  LL_TIM_Init(TIM4, &TIM_InitStruct);
 8001748:	f107 031c 	add.w	r3, r7, #28
 800174c:	4619      	mov	r1, r3
 800174e:	4818      	ldr	r0, [pc, #96]	@ (80017b0 <MX_TIM4_Init+0xf0>)
 8001750:	f001 f87c 	bl	800284c <LL_TIM_Init>
  LL_TIM_DisableARRPreload(TIM4);
 8001754:	4816      	ldr	r0, [pc, #88]	@ (80017b0 <MX_TIM4_Init+0xf0>)
 8001756:	f7ff fba5 	bl	8000ea4 <LL_TIM_DisableARRPreload>
  LL_TIM_SetClockSource(TIM4, LL_TIM_CLOCKSOURCE_INTERNAL);
 800175a:	2100      	movs	r1, #0
 800175c:	4814      	ldr	r0, [pc, #80]	@ (80017b0 <MX_TIM4_Init+0xf0>)
 800175e:	f7ff fd69 	bl	8001234 <LL_TIM_SetClockSource>
  LL_TIM_SetTriggerOutput(TIM4, LL_TIM_TRGO_RESET);
 8001762:	2100      	movs	r1, #0
 8001764:	4812      	ldr	r0, [pc, #72]	@ (80017b0 <MX_TIM4_Init+0xf0>)
 8001766:	f7ff fd8d 	bl	8001284 <LL_TIM_SetTriggerOutput>
  LL_TIM_DisableMasterSlaveMode(TIM4);
 800176a:	4811      	ldr	r0, [pc, #68]	@ (80017b0 <MX_TIM4_Init+0xf0>)
 800176c:	f7ff fdc3 	bl	80012f6 <LL_TIM_DisableMasterSlaveMode>
  LL_TIM_IC_SetActiveInput(TIM4, LL_TIM_CHANNEL_CH1, LL_TIM_ACTIVEINPUT_DIRECTTI);
 8001770:	f44f 3280 	mov.w	r2, #65536	@ 0x10000
 8001774:	2101      	movs	r1, #1
 8001776:	480e      	ldr	r0, [pc, #56]	@ (80017b0 <MX_TIM4_Init+0xf0>)
 8001778:	f7ff fc2e 	bl	8000fd8 <LL_TIM_IC_SetActiveInput>
  LL_TIM_IC_SetPrescaler(TIM4, LL_TIM_CHANNEL_CH1, LL_TIM_ICPSC_DIV1);
 800177c:	2200      	movs	r2, #0
 800177e:	2101      	movs	r1, #1
 8001780:	480b      	ldr	r0, [pc, #44]	@ (80017b0 <MX_TIM4_Init+0xf0>)
 8001782:	f7ff fc77 	bl	8001074 <LL_TIM_IC_SetPrescaler>
  LL_TIM_IC_SetFilter(TIM4, LL_TIM_CHANNEL_CH1, LL_TIM_IC_FILTER_FDIV8_N6);
 8001786:	f44f 0200 	mov.w	r2, #8388608	@ 0x800000
 800178a:	2101      	movs	r1, #1
 800178c:	4808      	ldr	r0, [pc, #32]	@ (80017b0 <MX_TIM4_Init+0xf0>)
 800178e:	f7ff fcbf 	bl	8001110 <LL_TIM_IC_SetFilter>
  LL_TIM_IC_SetPolarity(TIM4, LL_TIM_CHANNEL_CH1, LL_TIM_IC_POLARITY_RISING);
 8001792:	2200      	movs	r2, #0
 8001794:	2101      	movs	r1, #1
 8001796:	4806      	ldr	r0, [pc, #24]	@ (80017b0 <MX_TIM4_Init+0xf0>)
 8001798:	f7ff fd08 	bl	80011ac <LL_TIM_IC_SetPolarity>
  /* USER CODE BEGIN TIM4_Init 2 */
  LL_TIM_EnableIT_CC1(TIM4);
 800179c:	4804      	ldr	r0, [pc, #16]	@ (80017b0 <MX_TIM4_Init+0xf0>)
 800179e:	f7ff fdca 	bl	8001336 <LL_TIM_EnableIT_CC1>
  /* USER CODE END TIM4_Init 2 */

}
 80017a2:	bf00      	nop
 80017a4:	3730      	adds	r7, #48	@ 0x30
 80017a6:	46bd      	mov	sp, r7
 80017a8:	bd80      	pop	{r7, pc}
 80017aa:	bf00      	nop
 80017ac:	40020c00 	.word	0x40020c00
 80017b0:	40000800 	.word	0x40000800

080017b4 <MX_TIM5_Init>:
/* TIM5 init function */
void MX_TIM5_Init(void)
{
 80017b4:	b580      	push	{r7, lr}
 80017b6:	b086      	sub	sp, #24
 80017b8:	af00      	add	r7, sp, #0

  /* USER CODE BEGIN TIM5_Init 0 */

  /* USER CODE END TIM5_Init 0 */

  TIM_ClockConfigTypeDef sClockSourceConfig = {0};
 80017ba:	f107 0308 	add.w	r3, r7, #8
 80017be:	2200      	movs	r2, #0
 80017c0:	601a      	str	r2, [r3, #0]
 80017c2:	605a      	str	r2, [r3, #4]
 80017c4:	609a      	str	r2, [r3, #8]
 80017c6:	60da      	str	r2, [r3, #12]
  TIM_MasterConfigTypeDef sMasterConfig = {0};
 80017c8:	463b      	mov	r3, r7
 80017ca:	2200      	movs	r2, #0
 80017cc:	601a      	str	r2, [r3, #0]
 80017ce:	605a      	str	r2, [r3, #4]

  /* USER CODE BEGIN TIM5_Init 1 */

  /* USER CODE END TIM5_Init 1 */
  htim5.Instance = TIM5;
 80017d0:	4b1d      	ldr	r3, [pc, #116]	@ (8001848 <MX_TIM5_Init+0x94>)
 80017d2:	4a1e      	ldr	r2, [pc, #120]	@ (800184c <MX_TIM5_Init+0x98>)
 80017d4:	601a      	str	r2, [r3, #0]
  htim5.Init.Prescaler = 0;
 80017d6:	4b1c      	ldr	r3, [pc, #112]	@ (8001848 <MX_TIM5_Init+0x94>)
 80017d8:	2200      	movs	r2, #0
 80017da:	605a      	str	r2, [r3, #4]
  htim5.Init.CounterMode = TIM_COUNTERMODE_UP;
 80017dc:	4b1a      	ldr	r3, [pc, #104]	@ (8001848 <MX_TIM5_Init+0x94>)
 80017de:	2200      	movs	r2, #0
 80017e0:	609a      	str	r2, [r3, #8]
  htim5.Init.Period = 4294967295;
 80017e2:	4b19      	ldr	r3, [pc, #100]	@ (8001848 <MX_TIM5_Init+0x94>)
 80017e4:	f04f 32ff 	mov.w	r2, #4294967295
 80017e8:	60da      	str	r2, [r3, #12]
  htim5.Init.ClockDivision = TIM_CLOCKDIVISION_DIV1;
 80017ea:	4b17      	ldr	r3, [pc, #92]	@ (8001848 <MX_TIM5_Init+0x94>)
 80017ec:	2200      	movs	r2, #0
 80017ee:	611a      	str	r2, [r3, #16]
  htim5.Init.AutoReloadPreload = TIM_AUTORELOAD_PRELOAD_DISABLE;
 80017f0:	4b15      	ldr	r3, [pc, #84]	@ (8001848 <MX_TIM5_Init+0x94>)
 80017f2:	2200      	movs	r2, #0
 80017f4:	619a      	str	r2, [r3, #24]
  if (HAL_TIM_Base_Init(&htim5) != HAL_OK)
 80017f6:	4814      	ldr	r0, [pc, #80]	@ (8001848 <MX_TIM5_Init+0x94>)
 80017f8:	f000 f9ff 	bl	8001bfa <HAL_TIM_Base_Init>
 80017fc:	4603      	mov	r3, r0
 80017fe:	2b00      	cmp	r3, #0
 8001800:	d001      	beq.n	8001806 <MX_TIM5_Init+0x52>
  {
    Error_Handler();
 8001802:	f7ff f991 	bl	8000b28 <Error_Handler>
  }
  sClockSourceConfig.ClockSource = TIM_CLOCKSOURCE_INTERNAL;
 8001806:	f44f 5380 	mov.w	r3, #4096	@ 0x1000
 800180a:	60bb      	str	r3, [r7, #8]
  if (HAL_TIM_ConfigClockSource(&htim5, &sClockSourceConfig) != HAL_OK)
 800180c:	f107 0308 	add.w	r3, r7, #8
 8001810:	4619      	mov	r1, r3
 8001812:	480d      	ldr	r0, [pc, #52]	@ (8001848 <MX_TIM5_Init+0x94>)
 8001814:	f000 fa40 	bl	8001c98 <HAL_TIM_ConfigClockSource>
 8001818:	4603      	mov	r3, r0
 800181a:	2b00      	cmp	r3, #0
 800181c:	d001      	beq.n	8001822 <MX_TIM5_Init+0x6e>
  {
    Error_Handler();
 800181e:	f7ff f983 	bl	8000b28 <Error_Handler>
  }
  sMasterConfig.MasterOutputTrigger = TIM_TRGO_RESET;
 8001822:	2300      	movs	r3, #0
 8001824:	603b      	str	r3, [r7, #0]
  sMasterConfig.MasterSlaveMode = TIM_MASTERSLAVEMODE_DISABLE;
 8001826:	2300      	movs	r3, #0
 8001828:	607b      	str	r3, [r7, #4]
  if (HAL_TIMEx_MasterConfigSynchronization(&htim5, &sMasterConfig) != HAL_OK)
 800182a:	463b      	mov	r3, r7
 800182c:	4619      	mov	r1, r3
 800182e:	4806      	ldr	r0, [pc, #24]	@ (8001848 <MX_TIM5_Init+0x94>)
 8001830:	f000 fc3a 	bl	80020a8 <HAL_TIMEx_MasterConfigSynchronization>
 8001834:	4603      	mov	r3, r0
 8001836:	2b00      	cmp	r3, #0
 8001838:	d001      	beq.n	800183e <MX_TIM5_Init+0x8a>
  {
    Error_Handler();
 800183a:	f7ff f975 	bl	8000b28 <Error_Handler>
  }
  /* USER CODE BEGIN TIM5_Init 2 */

  /* USER CODE END TIM5_Init 2 */

}
 800183e:	bf00      	nop
 8001840:	3718      	adds	r7, #24
 8001842:	46bd      	mov	sp, r7
 8001844:	bd80      	pop	{r7, pc}
 8001846:	bf00      	nop
 8001848:	20000044 	.word	0x20000044
 800184c:	40000c00 	.word	0x40000c00

08001850 <MX_TIM6_Init>:
/* TIM6 init function */
void MX_TIM6_Init(void)
{
 8001850:	b580      	push	{r7, lr}
 8001852:	b086      	sub	sp, #24
 8001854:	af00      	add	r7, sp, #0

  /* USER CODE BEGIN TIM6_Init 0 */

  /* USER CODE END TIM6_Init 0 */

  LL_TIM_InitTypeDef TIM_InitStruct = {0};
 8001856:	1d3b      	adds	r3, r7, #4
 8001858:	2200      	movs	r2, #0
 800185a:	601a      	str	r2, [r3, #0]
 800185c:	605a      	str	r2, [r3, #4]
 800185e:	609a      	str	r2, [r3, #8]
 8001860:	60da      	str	r2, [r3, #12]
 8001862:	611a      	str	r2, [r3, #16]

  /* Peripheral clock enable */
  LL_APB1_GRP1_EnableClock(LL_APB1_GRP1_PERIPH_TIM6);
 8001864:	2010      	movs	r0, #16
 8001866:	f7ff faed 	bl	8000e44 <LL_APB1_GRP1_EnableClock>

  /* TIM6 interrupt Init */
  NVIC_SetPriority(TIM6_DAC_IRQn, NVIC_EncodePriority(NVIC_GetPriorityGrouping(),0, 0));
 800186a:	f7ff fa49 	bl	8000d00 <__NVIC_GetPriorityGrouping>
 800186e:	4603      	mov	r3, r0
 8001870:	2200      	movs	r2, #0
 8001872:	2100      	movs	r1, #0
 8001874:	4618      	mov	r0, r3
 8001876:	f7ff fa99 	bl	8000dac <NVIC_EncodePriority>
 800187a:	4603      	mov	r3, r0
 800187c:	4619      	mov	r1, r3
 800187e:	2036      	movs	r0, #54	@ 0x36
 8001880:	f7ff fa6a 	bl	8000d58 <__NVIC_SetPriority>
  NVIC_EnableIRQ(TIM6_DAC_IRQn);
 8001884:	2036      	movs	r0, #54	@ 0x36
 8001886:	f7ff fa49 	bl	8000d1c <__NVIC_EnableIRQ>

  /* USER CODE BEGIN TIM6_Init 1 */

  /* USER CODE END TIM6_Init 1 */
  TIM_InitStruct.Prescaler = 799;
 800188a:	f240 331f 	movw	r3, #799	@ 0x31f
 800188e:	80bb      	strh	r3, [r7, #4]
  TIM_InitStruct.CounterMode = LL_TIM_COUNTERMODE_UP;
 8001890:	2300      	movs	r3, #0
 8001892:	60bb      	str	r3, [r7, #8]
  TIM_InitStruct.Autoreload = 9999;
 8001894:	f242 730f 	movw	r3, #9999	@ 0x270f
 8001898:	60fb      	str	r3, [r7, #12]
  LL_TIM_Init(TIM6, &TIM_InitStruct);
 800189a:	1d3b      	adds	r3, r7, #4
 800189c:	4619      	mov	r1, r3
 800189e:	480a      	ldr	r0, [pc, #40]	@ (80018c8 <MX_TIM6_Init+0x78>)
 80018a0:	f000 ffd4 	bl	800284c <LL_TIM_Init>
  LL_TIM_DisableARRPreload(TIM6);
 80018a4:	4808      	ldr	r0, [pc, #32]	@ (80018c8 <MX_TIM6_Init+0x78>)
 80018a6:	f7ff fafd 	bl	8000ea4 <LL_TIM_DisableARRPreload>
  LL_TIM_SetTriggerOutput(TIM6, LL_TIM_TRGO_RESET);
 80018aa:	2100      	movs	r1, #0
 80018ac:	4806      	ldr	r0, [pc, #24]	@ (80018c8 <MX_TIM6_Init+0x78>)
 80018ae:	f7ff fce9 	bl	8001284 <LL_TIM_SetTriggerOutput>
  LL_TIM_DisableMasterSlaveMode(TIM6);
 80018b2:	4805      	ldr	r0, [pc, #20]	@ (80018c8 <MX_TIM6_Init+0x78>)
 80018b4:	f7ff fd1f 	bl	80012f6 <LL_TIM_DisableMasterSlaveMode>
  /* USER CODE BEGIN TIM6_Init 2 */
  LL_TIM_EnableIT_UPDATE(TIM6);
 80018b8:	4803      	ldr	r0, [pc, #12]	@ (80018c8 <MX_TIM6_Init+0x78>)
 80018ba:	f7ff fd2c 	bl	8001316 <LL_TIM_EnableIT_UPDATE>
  /* USER CODE END TIM6_Init 2 */

}
 80018be:	bf00      	nop
 80018c0:	3718      	adds	r7, #24
 80018c2:	46bd      	mov	sp, r7
 80018c4:	bd80      	pop	{r7, pc}
 80018c6:	bf00      	nop
 80018c8:	40001000 	.word	0x40001000

080018cc <HAL_TIM_Base_MspInit>:

void HAL_TIM_Base_MspInit(TIM_HandleTypeDef* tim_baseHandle)
{
 80018cc:	b480      	push	{r7}
 80018ce:	b085      	sub	sp, #20
 80018d0:	af00      	add	r7, sp, #0
 80018d2:	6078      	str	r0, [r7, #4]

  if(tim_baseHandle->Instance==TIM5)
 80018d4:	687b      	ldr	r3, [r7, #4]
 80018d6:	681b      	ldr	r3, [r3, #0]
 80018d8:	4a0b      	ldr	r2, [pc, #44]	@ (8001908 <HAL_TIM_Base_MspInit+0x3c>)
 80018da:	4293      	cmp	r3, r2
 80018dc:	d10d      	bne.n	80018fa <HAL_TIM_Base_MspInit+0x2e>
  {
  /* USER CODE BEGIN TIM5_MspInit 0 */

  /* USER CODE END TIM5_MspInit 0 */
    /* TIM5 clock enable */
    __HAL_RCC_TIM5_CLK_ENABLE();
 80018de:	2300      	movs	r3, #0
 80018e0:	60fb      	str	r3, [r7, #12]
 80018e2:	4b0a      	ldr	r3, [pc, #40]	@ (800190c <HAL_TIM_Base_MspInit+0x40>)
 80018e4:	6c1b      	ldr	r3, [r3, #64]	@ 0x40
 80018e6:	4a09      	ldr	r2, [pc, #36]	@ (800190c <HAL_TIM_Base_MspInit+0x40>)
 80018e8:	f043 0308 	orr.w	r3, r3, #8
 80018ec:	6413      	str	r3, [r2, #64]	@ 0x40
 80018ee:	4b07      	ldr	r3, [pc, #28]	@ (800190c <HAL_TIM_Base_MspInit+0x40>)
 80018f0:	6c1b      	ldr	r3, [r3, #64]	@ 0x40
 80018f2:	f003 0308 	and.w	r3, r3, #8
 80018f6:	60fb      	str	r3, [r7, #12]
 80018f8:	68fb      	ldr	r3, [r7, #12]
  /* USER CODE BEGIN TIM5_MspInit 1 */

  /* USER CODE END TIM5_MspInit 1 */
  }
}
 80018fa:	bf00      	nop
 80018fc:	3714      	adds	r7, #20
 80018fe:	46bd      	mov	sp, r7
 8001900:	f85d 7b04 	ldr.w	r7, [sp], #4
 8001904:	4770      	bx	lr
 8001906:	bf00      	nop
 8001908:	40000c00 	.word	0x40000c00
 800190c:	40023800 	.word	0x40023800

08001910 <Reset_Handler>:

    .section  .text.Reset_Handler
  .weak  Reset_Handler
  .type  Reset_Handler, %function
Reset_Handler:  
  ldr   sp, =_estack     /* set stack pointer */
 8001910:	f8df d034 	ldr.w	sp, [pc, #52]	@ 8001948 <LoopFillZerobss+0xe>
  
/* Call the clock system initialization function.*/
  bl  SystemInit  
 8001914:	f7ff f9e2 	bl	8000cdc <SystemInit>

/* Copy the data segment initializers from flash to SRAM */  
  ldr r0, =_sdata
 8001918:	480c      	ldr	r0, [pc, #48]	@ (800194c <LoopFillZerobss+0x12>)
  ldr r1, =_edata
 800191a:	490d      	ldr	r1, [pc, #52]	@ (8001950 <LoopFillZerobss+0x16>)
  ldr r2, =_sidata
 800191c:	4a0d      	ldr	r2, [pc, #52]	@ (8001954 <LoopFillZerobss+0x1a>)
  movs r3, #0
 800191e:	2300      	movs	r3, #0
  b LoopCopyDataInit
 8001920:	e002      	b.n	8001928 <LoopCopyDataInit>

08001922 <CopyDataInit>:

CopyDataInit:
  ldr r4, [r2, r3]
 8001922:	58d4      	ldr	r4, [r2, r3]
  str r4, [r0, r3]
 8001924:	50c4      	str	r4, [r0, r3]
  adds r3, r3, #4
 8001926:	3304      	adds	r3, #4

08001928 <LoopCopyDataInit>:

LoopCopyDataInit:
  adds r4, r0, r3
 8001928:	18c4      	adds	r4, r0, r3
  cmp r4, r1
 800192a:	428c      	cmp	r4, r1
  bcc CopyDataInit
 800192c:	d3f9      	bcc.n	8001922 <CopyDataInit>
  
/* Zero fill the bss segment. */
  ldr r2, =_sbss
 800192e:	4a0a      	ldr	r2, [pc, #40]	@ (8001958 <LoopFillZerobss+0x1e>)
  ldr r4, =_ebss
 8001930:	4c0a      	ldr	r4, [pc, #40]	@ (800195c <LoopFillZerobss+0x22>)
  movs r3, #0
 8001932:	2300      	movs	r3, #0
  b LoopFillZerobss
 8001934:	e001      	b.n	800193a <LoopFillZerobss>

08001936 <FillZerobss>:

FillZerobss:
  str  r3, [r2]
 8001936:	6013      	str	r3, [r2, #0]
  adds r2, r2, #4
 8001938:	3204      	adds	r2, #4

0800193a <LoopFillZerobss>:

LoopFillZerobss:
  cmp r2, r4
 800193a:	42a2      	cmp	r2, r4
  bcc FillZerobss
 800193c:	d3fb      	bcc.n	8001936 <FillZerobss>

/* Call static constructors */
    bl __libc_init_array
 800193e:	f001 fa1d 	bl	8002d7c <__libc_init_array>
/* Call the application's entry point.*/
  bl  main
 8001942:	f7ff f85b 	bl	80009fc <main>
  bx  lr    
 8001946:	4770      	bx	lr
  ldr   sp, =_estack     /* set stack pointer */
 8001948:	20030000 	.word	0x20030000
  ldr r0, =_sdata
 800194c:	20000000 	.word	0x20000000
  ldr r1, =_edata
 8001950:	2000000c 	.word	0x2000000c
  ldr r2, =_sidata
 8001954:	08002e04 	.word	0x08002e04
  ldr r2, =_sbss
 8001958:	2000000c 	.word	0x2000000c
  ldr r4, =_ebss
 800195c:	20000090 	.word	0x20000090

08001960 <ADC_IRQHandler>:
 * @retval None       
*/
    .section  .text.Default_Handler,"ax",%progbits
Default_Handler:
Infinite_Loop:
  b  Infinite_Loop
 8001960:	e7fe      	b.n	8001960 <ADC_IRQHandler>
	...

08001964 <HAL_Init>:
  *         need to ensure that the SysTick time base is always set to 1 millisecond
  *         to have correct HAL operation.
  * @retval HAL status
  */
HAL_StatusTypeDef HAL_Init(void)
{
 8001964:	b580      	push	{r7, lr}
 8001966:	af00      	add	r7, sp, #0
  /* Configure Flash prefetch, Instruction cache, Data cache */ 
#if (INSTRUCTION_CACHE_ENABLE != 0U)
  __HAL_FLASH_INSTRUCTION_CACHE_ENABLE();
 8001968:	4b0e      	ldr	r3, [pc, #56]	@ (80019a4 <HAL_Init+0x40>)
 800196a:	681b      	ldr	r3, [r3, #0]
 800196c:	4a0d      	ldr	r2, [pc, #52]	@ (80019a4 <HAL_Init+0x40>)
 800196e:	f443 7300 	orr.w	r3, r3, #512	@ 0x200
 8001972:	6013      	str	r3, [r2, #0]
#endif /* INSTRUCTION_CACHE_ENABLE */

#if (DATA_CACHE_ENABLE != 0U)
  __HAL_FLASH_DATA_CACHE_ENABLE();
 8001974:	4b0b      	ldr	r3, [pc, #44]	@ (80019a4 <HAL_Init+0x40>)
 8001976:	681b      	ldr	r3, [r3, #0]
 8001978:	4a0a      	ldr	r2, [pc, #40]	@ (80019a4 <HAL_Init+0x40>)
 800197a:	f443 6380 	orr.w	r3, r3, #1024	@ 0x400
 800197e:	6013      	str	r3, [r2, #0]
#endif /* DATA_CACHE_ENABLE */

#if (PREFETCH_ENABLE != 0U)
  __HAL_FLASH_PREFETCH_BUFFER_ENABLE();
 8001980:	4b08      	ldr	r3, [pc, #32]	@ (80019a4 <HAL_Init+0x40>)
 8001982:	681b      	ldr	r3, [r3, #0]
 8001984:	4a07      	ldr	r2, [pc, #28]	@ (80019a4 <HAL_Init+0x40>)
 8001986:	f443 7380 	orr.w	r3, r3, #256	@ 0x100
 800198a:	6013      	str	r3, [r2, #0]
#endif /* PREFETCH_ENABLE */

  /* Set Interrupt Group Priority */
  HAL_NVIC_SetPriorityGrouping(NVIC_PRIORITYGROUP_4);
 800198c:	2003      	movs	r0, #3
 800198e:	f000 f901 	bl	8001b94 <HAL_NVIC_SetPriorityGrouping>

  /* Use systick as time base source and configure 1ms tick (default clock after Reset is HSI) */
  HAL_InitTick(TICK_INT_PRIORITY);
 8001992:	2000      	movs	r0, #0
 8001994:	f000 f808 	bl	80019a8 <HAL_InitTick>

  /* Init the low level hardware */
  HAL_MspInit();
 8001998:	f7ff f8cc 	bl	8000b34 <HAL_MspInit>

  /* Return function status */
  return HAL_OK;
 800199c:	2300      	movs	r3, #0
}
 800199e:	4618      	mov	r0, r3
 80019a0:	bd80      	pop	{r7, pc}
 80019a2:	bf00      	nop
 80019a4:	40023c00 	.word	0x40023c00

080019a8 <HAL_InitTick>:
  *       implementation  in user file.
  * @param TickPriority Tick interrupt priority.
  * @retval HAL status
  */
__weak HAL_StatusTypeDef HAL_InitTick(uint32_t TickPriority)
{
 80019a8:	b580      	push	{r7, lr}
 80019aa:	b082      	sub	sp, #8
 80019ac:	af00      	add	r7, sp, #0
 80019ae:	6078      	str	r0, [r7, #4]
  /* Configure the SysTick to have interrupt in 1ms time basis*/
  if (HAL_SYSTICK_Config(SystemCoreClock / (1000U / uwTickFreq)) > 0U)
 80019b0:	4b12      	ldr	r3, [pc, #72]	@ (80019fc <HAL_InitTick+0x54>)
 80019b2:	681a      	ldr	r2, [r3, #0]
 80019b4:	4b12      	ldr	r3, [pc, #72]	@ (8001a00 <HAL_InitTick+0x58>)
 80019b6:	781b      	ldrb	r3, [r3, #0]
 80019b8:	4619      	mov	r1, r3
 80019ba:	f44f 737a 	mov.w	r3, #1000	@ 0x3e8
 80019be:	fbb3 f3f1 	udiv	r3, r3, r1
 80019c2:	fbb2 f3f3 	udiv	r3, r2, r3
 80019c6:	4618      	mov	r0, r3
 80019c8:	f000 f90b 	bl	8001be2 <HAL_SYSTICK_Config>
 80019cc:	4603      	mov	r3, r0
 80019ce:	2b00      	cmp	r3, #0
 80019d0:	d001      	beq.n	80019d6 <HAL_InitTick+0x2e>
  {
    return HAL_ERROR;
 80019d2:	2301      	movs	r3, #1
 80019d4:	e00e      	b.n	80019f4 <HAL_InitTick+0x4c>
  }

  /* Configure the SysTick IRQ priority */
  if (TickPriority < (1UL << __NVIC_PRIO_BITS))
 80019d6:	687b      	ldr	r3, [r7, #4]
 80019d8:	2b0f      	cmp	r3, #15
 80019da:	d80a      	bhi.n	80019f2 <HAL_InitTick+0x4a>
  {
    HAL_NVIC_SetPriority(SysTick_IRQn, TickPriority, 0U);
 80019dc:	2200      	movs	r2, #0
 80019de:	6879      	ldr	r1, [r7, #4]
 80019e0:	f04f 30ff 	mov.w	r0, #4294967295
 80019e4:	f000 f8e1 	bl	8001baa <HAL_NVIC_SetPriority>
    uwTickPrio = TickPriority;
 80019e8:	4a06      	ldr	r2, [pc, #24]	@ (8001a04 <HAL_InitTick+0x5c>)
 80019ea:	687b      	ldr	r3, [r7, #4]
 80019ec:	6013      	str	r3, [r2, #0]
  {
    return HAL_ERROR;
  }

  /* Return function status */
  return HAL_OK;
 80019ee:	2300      	movs	r3, #0
 80019f0:	e000      	b.n	80019f4 <HAL_InitTick+0x4c>
    return HAL_ERROR;
 80019f2:	2301      	movs	r3, #1
}
 80019f4:	4618      	mov	r0, r3
 80019f6:	3708      	adds	r7, #8
 80019f8:	46bd      	mov	sp, r7
 80019fa:	bd80      	pop	{r7, pc}
 80019fc:	20000000 	.word	0x20000000
 8001a00:	20000008 	.word	0x20000008
 8001a04:	20000004 	.word	0x20000004

08001a08 <HAL_IncTick>:
 * @note This function is declared as __weak to be overwritten in case of other 
  *      implementations in user file.
  * @retval None
  */
__weak void HAL_IncTick(void)
{
 8001a08:	b480      	push	{r7}
 8001a0a:	af00      	add	r7, sp, #0
  uwTick += uwTickFreq;
 8001a0c:	4b06      	ldr	r3, [pc, #24]	@ (8001a28 <HAL_IncTick+0x20>)
 8001a0e:	781b      	ldrb	r3, [r3, #0]
 8001a10:	461a      	mov	r2, r3
 8001a12:	4b06      	ldr	r3, [pc, #24]	@ (8001a2c <HAL_IncTick+0x24>)
 8001a14:	681b      	ldr	r3, [r3, #0]
 8001a16:	4413      	add	r3, r2
 8001a18:	4a04      	ldr	r2, [pc, #16]	@ (8001a2c <HAL_IncTick+0x24>)
 8001a1a:	6013      	str	r3, [r2, #0]
}
 8001a1c:	bf00      	nop
 8001a1e:	46bd      	mov	sp, r7
 8001a20:	f85d 7b04 	ldr.w	r7, [sp], #4
 8001a24:	4770      	bx	lr
 8001a26:	bf00      	nop
 8001a28:	20000008 	.word	0x20000008
 8001a2c:	2000008c 	.word	0x2000008c

08001a30 <__NVIC_SetPriorityGrouping>:
{
 8001a30:	b480      	push	{r7}
 8001a32:	b085      	sub	sp, #20
 8001a34:	af00      	add	r7, sp, #0
 8001a36:	6078      	str	r0, [r7, #4]
  uint32_t PriorityGroupTmp = (PriorityGroup & (uint32_t)0x07UL);             /* only values 0..7 are used          */
 8001a38:	687b      	ldr	r3, [r7, #4]
 8001a3a:	f003 0307 	and.w	r3, r3, #7
 8001a3e:	60fb      	str	r3, [r7, #12]
  reg_value  =  SCB->AIRCR;                                                   /* read old register configuration    */
 8001a40:	4b0c      	ldr	r3, [pc, #48]	@ (8001a74 <__NVIC_SetPriorityGrouping+0x44>)
 8001a42:	68db      	ldr	r3, [r3, #12]
 8001a44:	60bb      	str	r3, [r7, #8]
  reg_value &= ~((uint32_t)(SCB_AIRCR_VECTKEY_Msk | SCB_AIRCR_PRIGROUP_Msk)); /* clear bits to change               */
 8001a46:	68ba      	ldr	r2, [r7, #8]
 8001a48:	f64f 03ff 	movw	r3, #63743	@ 0xf8ff
 8001a4c:	4013      	ands	r3, r2
 8001a4e:	60bb      	str	r3, [r7, #8]
                (PriorityGroupTmp << SCB_AIRCR_PRIGROUP_Pos)  );              /* Insert write key and priority group */
 8001a50:	68fb      	ldr	r3, [r7, #12]
 8001a52:	021a      	lsls	r2, r3, #8
                ((uint32_t)0x5FAUL << SCB_AIRCR_VECTKEY_Pos) |
 8001a54:	68bb      	ldr	r3, [r7, #8]
 8001a56:	4313      	orrs	r3, r2
  reg_value  =  (reg_value                                   |
 8001a58:	f043 63bf 	orr.w	r3, r3, #100139008	@ 0x5f80000
 8001a5c:	f443 3300 	orr.w	r3, r3, #131072	@ 0x20000
 8001a60:	60bb      	str	r3, [r7, #8]
  SCB->AIRCR =  reg_value;
 8001a62:	4a04      	ldr	r2, [pc, #16]	@ (8001a74 <__NVIC_SetPriorityGrouping+0x44>)
 8001a64:	68bb      	ldr	r3, [r7, #8]
 8001a66:	60d3      	str	r3, [r2, #12]
}
 8001a68:	bf00      	nop
 8001a6a:	3714      	adds	r7, #20
 8001a6c:	46bd      	mov	sp, r7
 8001a6e:	f85d 7b04 	ldr.w	r7, [sp], #4
 8001a72:	4770      	bx	lr
 8001a74:	e000ed00 	.word	0xe000ed00

08001a78 <__NVIC_GetPriorityGrouping>:
{
 8001a78:	b480      	push	{r7}
 8001a7a:	af00      	add	r7, sp, #0
  return ((uint32_t)((SCB->AIRCR & SCB_AIRCR_PRIGROUP_Msk) >> SCB_AIRCR_PRIGROUP_Pos));
 8001a7c:	4b04      	ldr	r3, [pc, #16]	@ (8001a90 <__NVIC_GetPriorityGrouping+0x18>)
 8001a7e:	68db      	ldr	r3, [r3, #12]
 8001a80:	0a1b      	lsrs	r3, r3, #8
 8001a82:	f003 0307 	and.w	r3, r3, #7
}
 8001a86:	4618      	mov	r0, r3
 8001a88:	46bd      	mov	sp, r7
 8001a8a:	f85d 7b04 	ldr.w	r7, [sp], #4
 8001a8e:	4770      	bx	lr
 8001a90:	e000ed00 	.word	0xe000ed00

08001a94 <__NVIC_SetPriority>:
{
 8001a94:	b480      	push	{r7}
 8001a96:	b083      	sub	sp, #12
 8001a98:	af00      	add	r7, sp, #0
 8001a9a:	4603      	mov	r3, r0
 8001a9c:	6039      	str	r1, [r7, #0]
 8001a9e:	71fb      	strb	r3, [r7, #7]
  if ((int32_t)(IRQn) >= 0)
 8001aa0:	f997 3007 	ldrsb.w	r3, [r7, #7]
 8001aa4:	2b00      	cmp	r3, #0
 8001aa6:	db0a      	blt.n	8001abe <__NVIC_SetPriority+0x2a>
    NVIC->IP[((uint32_t)IRQn)]               = (uint8_t)((priority << (8U - __NVIC_PRIO_BITS)) & (uint32_t)0xFFUL);
 8001aa8:	683b      	ldr	r3, [r7, #0]
 8001aaa:	b2da      	uxtb	r2, r3
 8001aac:	490c      	ldr	r1, [pc, #48]	@ (8001ae0 <__NVIC_SetPriority+0x4c>)
 8001aae:	f997 3007 	ldrsb.w	r3, [r7, #7]
 8001ab2:	0112      	lsls	r2, r2, #4
 8001ab4:	b2d2      	uxtb	r2, r2
 8001ab6:	440b      	add	r3, r1
 8001ab8:	f883 2300 	strb.w	r2, [r3, #768]	@ 0x300
}
 8001abc:	e00a      	b.n	8001ad4 <__NVIC_SetPriority+0x40>
    SCB->SHP[(((uint32_t)IRQn) & 0xFUL)-4UL] = (uint8_t)((priority << (8U - __NVIC_PRIO_BITS)) & (uint32_t)0xFFUL);
 8001abe:	683b      	ldr	r3, [r7, #0]
 8001ac0:	b2da      	uxtb	r2, r3
 8001ac2:	4908      	ldr	r1, [pc, #32]	@ (8001ae4 <__NVIC_SetPriority+0x50>)
 8001ac4:	79fb      	ldrb	r3, [r7, #7]
 8001ac6:	f003 030f 	and.w	r3, r3, #15
 8001aca:	3b04      	subs	r3, #4
 8001acc:	0112      	lsls	r2, r2, #4
 8001ace:	b2d2      	uxtb	r2, r2
 8001ad0:	440b      	add	r3, r1
 8001ad2:	761a      	strb	r2, [r3, #24]
}
 8001ad4:	bf00      	nop
 8001ad6:	370c      	adds	r7, #12
 8001ad8:	46bd      	mov	sp, r7
 8001ada:	f85d 7b04 	ldr.w	r7, [sp], #4
 8001ade:	4770      	bx	lr
 8001ae0:	e000e100 	.word	0xe000e100
 8001ae4:	e000ed00 	.word	0xe000ed00

08001ae8 <NVIC_EncodePriority>:
{
 8001ae8:	b480      	push	{r7}
 8001aea:	b089      	sub	sp, #36	@ 0x24
 8001aec:	af00      	add	r7, sp, #0
 8001aee:	60f8      	str	r0, [r7, #12]
 8001af0:	60b9      	str	r1, [r7, #8]
 8001af2:	607a      	str	r2, [r7, #4]
  uint32_t PriorityGroupTmp = (PriorityGroup & (uint32_t)0x07UL);   /* only values 0..7 are used          */
 8001af4:	68fb      	ldr	r3, [r7, #12]
 8001af6:	f003 0307 	and.w	r3, r3, #7
 8001afa:	61fb      	str	r3, [r7, #28]
  PreemptPriorityBits = ((7UL - PriorityGroupTmp) > (uint32_t)(__NVIC_PRIO_BITS)) ? (uint32_t)(__NVIC_PRIO_BITS) : (uint32_t)(7UL - PriorityGroupTmp);
 8001afc:	69fb      	ldr	r3, [r7, #28]
 8001afe:	f1c3 0307 	rsb	r3, r3, #7
 8001b02:	2b04      	cmp	r3, #4
 8001b04:	bf28      	it	cs
 8001b06:	2304      	movcs	r3, #4
 8001b08:	61bb      	str	r3, [r7, #24]
  SubPriorityBits     = ((PriorityGroupTmp + (uint32_t)(__NVIC_PRIO_BITS)) < (uint32_t)7UL) ? (uint32_t)0UL : (uint32_t)((PriorityGroupTmp - 7UL) + (uint32_t)(__NVIC_PRIO_BITS));
 8001b0a:	69fb      	ldr	r3, [r7, #28]
 8001b0c:	3304      	adds	r3, #4
 8001b0e:	2b06      	cmp	r3, #6
 8001b10:	d902      	bls.n	8001b18 <NVIC_EncodePriority+0x30>
 8001b12:	69fb      	ldr	r3, [r7, #28]
 8001b14:	3b03      	subs	r3, #3
 8001b16:	e000      	b.n	8001b1a <NVIC_EncodePriority+0x32>
 8001b18:	2300      	movs	r3, #0
 8001b1a:	617b      	str	r3, [r7, #20]
           ((PreemptPriority & (uint32_t)((1UL << (PreemptPriorityBits)) - 1UL)) << SubPriorityBits) |
 8001b1c:	f04f 32ff 	mov.w	r2, #4294967295
 8001b20:	69bb      	ldr	r3, [r7, #24]
 8001b22:	fa02 f303 	lsl.w	r3, r2, r3
 8001b26:	43da      	mvns	r2, r3
 8001b28:	68bb      	ldr	r3, [r7, #8]
 8001b2a:	401a      	ands	r2, r3
 8001b2c:	697b      	ldr	r3, [r7, #20]
 8001b2e:	409a      	lsls	r2, r3
           ((SubPriority     & (uint32_t)((1UL << (SubPriorityBits    )) - 1UL)))
 8001b30:	f04f 31ff 	mov.w	r1, #4294967295
 8001b34:	697b      	ldr	r3, [r7, #20]
 8001b36:	fa01 f303 	lsl.w	r3, r1, r3
 8001b3a:	43d9      	mvns	r1, r3
 8001b3c:	687b      	ldr	r3, [r7, #4]
 8001b3e:	400b      	ands	r3, r1
           ((PreemptPriority & (uint32_t)((1UL << (PreemptPriorityBits)) - 1UL)) << SubPriorityBits) |
 8001b40:	4313      	orrs	r3, r2
}
 8001b42:	4618      	mov	r0, r3
 8001b44:	3724      	adds	r7, #36	@ 0x24
 8001b46:	46bd      	mov	sp, r7
 8001b48:	f85d 7b04 	ldr.w	r7, [sp], #4
 8001b4c:	4770      	bx	lr
	...

08001b50 <SysTick_Config>:
  \note    When the variable <b>__Vendor_SysTickConfig</b> is set to 1, then the
           function <b>SysTick_Config</b> is not included. In this case, the file <b><i>device</i>.h</b>
           must contain a vendor-specific implementation of this function.
 */
__STATIC_INLINE uint32_t SysTick_Config(uint32_t ticks)
{
 8001b50:	b580      	push	{r7, lr}
 8001b52:	b082      	sub	sp, #8
 8001b54:	af00      	add	r7, sp, #0
 8001b56:	6078      	str	r0, [r7, #4]
  if ((ticks - 1UL) > SysTick_LOAD_RELOAD_Msk)
 8001b58:	687b      	ldr	r3, [r7, #4]
 8001b5a:	3b01      	subs	r3, #1
 8001b5c:	f1b3 7f80 	cmp.w	r3, #16777216	@ 0x1000000
 8001b60:	d301      	bcc.n	8001b66 <SysTick_Config+0x16>
  {
    return (1UL);                                                   /* Reload value impossible */
 8001b62:	2301      	movs	r3, #1
 8001b64:	e00f      	b.n	8001b86 <SysTick_Config+0x36>
  }

  SysTick->LOAD  = (uint32_t)(ticks - 1UL);                         /* set reload register */
 8001b66:	4a0a      	ldr	r2, [pc, #40]	@ (8001b90 <SysTick_Config+0x40>)
 8001b68:	687b      	ldr	r3, [r7, #4]
 8001b6a:	3b01      	subs	r3, #1
 8001b6c:	6053      	str	r3, [r2, #4]
  NVIC_SetPriority (SysTick_IRQn, (1UL << __NVIC_PRIO_BITS) - 1UL); /* set Priority for Systick Interrupt */
 8001b6e:	210f      	movs	r1, #15
 8001b70:	f04f 30ff 	mov.w	r0, #4294967295
 8001b74:	f7ff ff8e 	bl	8001a94 <__NVIC_SetPriority>
  SysTick->VAL   = 0UL;                                             /* Load the SysTick Counter Value */
 8001b78:	4b05      	ldr	r3, [pc, #20]	@ (8001b90 <SysTick_Config+0x40>)
 8001b7a:	2200      	movs	r2, #0
 8001b7c:	609a      	str	r2, [r3, #8]
  SysTick->CTRL  = SysTick_CTRL_CLKSOURCE_Msk |
 8001b7e:	4b04      	ldr	r3, [pc, #16]	@ (8001b90 <SysTick_Config+0x40>)
 8001b80:	2207      	movs	r2, #7
 8001b82:	601a      	str	r2, [r3, #0]
                   SysTick_CTRL_TICKINT_Msk   |
                   SysTick_CTRL_ENABLE_Msk;                         /* Enable SysTick IRQ and SysTick Timer */
  return (0UL);                                                     /* Function successful */
 8001b84:	2300      	movs	r3, #0
}
 8001b86:	4618      	mov	r0, r3
 8001b88:	3708      	adds	r7, #8
 8001b8a:	46bd      	mov	sp, r7
 8001b8c:	bd80      	pop	{r7, pc}
 8001b8e:	bf00      	nop
 8001b90:	e000e010 	.word	0xe000e010

08001b94 <HAL_NVIC_SetPriorityGrouping>:
  * @note   When the NVIC_PriorityGroup_0 is selected, IRQ preemption is no more possible. 
  *         The pending IRQ priority will be managed only by the subpriority. 
  * @retval None
  */
void HAL_NVIC_SetPriorityGrouping(uint32_t PriorityGroup)
{
 8001b94:	b580      	push	{r7, lr}
 8001b96:	b082      	sub	sp, #8
 8001b98:	af00      	add	r7, sp, #0
 8001b9a:	6078      	str	r0, [r7, #4]
  /* Check the parameters */
  assert_param(IS_NVIC_PRIORITY_GROUP(PriorityGroup));
  
  /* Set the PRIGROUP[10:8] bits according to the PriorityGroup parameter value */
  NVIC_SetPriorityGrouping(PriorityGroup);
 8001b9c:	6878      	ldr	r0, [r7, #4]
 8001b9e:	f7ff ff47 	bl	8001a30 <__NVIC_SetPriorityGrouping>
}
 8001ba2:	bf00      	nop
 8001ba4:	3708      	adds	r7, #8
 8001ba6:	46bd      	mov	sp, r7
 8001ba8:	bd80      	pop	{r7, pc}

08001baa <HAL_NVIC_SetPriority>:
  *         This parameter can be a value between 0 and 15
  *         A lower priority value indicates a higher priority.          
  * @retval None
  */
void HAL_NVIC_SetPriority(IRQn_Type IRQn, uint32_t PreemptPriority, uint32_t SubPriority)
{ 
 8001baa:	b580      	push	{r7, lr}
 8001bac:	b086      	sub	sp, #24
 8001bae:	af00      	add	r7, sp, #0
 8001bb0:	4603      	mov	r3, r0
 8001bb2:	60b9      	str	r1, [r7, #8]
 8001bb4:	607a      	str	r2, [r7, #4]
 8001bb6:	73fb      	strb	r3, [r7, #15]
  uint32_t prioritygroup = 0x00U;
 8001bb8:	2300      	movs	r3, #0
 8001bba:	617b      	str	r3, [r7, #20]
  
  /* Check the parameters */
  assert_param(IS_NVIC_SUB_PRIORITY(SubPriority));
  assert_param(IS_NVIC_PREEMPTION_PRIORITY(PreemptPriority));
  
  prioritygroup = NVIC_GetPriorityGrouping();
 8001bbc:	f7ff ff5c 	bl	8001a78 <__NVIC_GetPriorityGrouping>
 8001bc0:	6178      	str	r0, [r7, #20]
  
  NVIC_SetPriority(IRQn, NVIC_EncodePriority(prioritygroup, PreemptPriority, SubPriority));
 8001bc2:	687a      	ldr	r2, [r7, #4]
 8001bc4:	68b9      	ldr	r1, [r7, #8]
 8001bc6:	6978      	ldr	r0, [r7, #20]
 8001bc8:	f7ff ff8e 	bl	8001ae8 <NVIC_EncodePriority>
 8001bcc:	4602      	mov	r2, r0
 8001bce:	f997 300f 	ldrsb.w	r3, [r7, #15]
 8001bd2:	4611      	mov	r1, r2
 8001bd4:	4618      	mov	r0, r3
 8001bd6:	f7ff ff5d 	bl	8001a94 <__NVIC_SetPriority>
}
 8001bda:	bf00      	nop
 8001bdc:	3718      	adds	r7, #24
 8001bde:	46bd      	mov	sp, r7
 8001be0:	bd80      	pop	{r7, pc}

08001be2 <HAL_SYSTICK_Config>:
  * @param  TicksNumb Specifies the ticks Number of ticks between two interrupts.
  * @retval status:  - 0  Function succeeded.
  *                  - 1  Function failed.
  */
uint32_t HAL_SYSTICK_Config(uint32_t TicksNumb)
{
 8001be2:	b580      	push	{r7, lr}
 8001be4:	b082      	sub	sp, #8
 8001be6:	af00      	add	r7, sp, #0
 8001be8:	6078      	str	r0, [r7, #4]
   return SysTick_Config(TicksNumb);
 8001bea:	6878      	ldr	r0, [r7, #4]
 8001bec:	f7ff ffb0 	bl	8001b50 <SysTick_Config>
 8001bf0:	4603      	mov	r3, r0
}
 8001bf2:	4618      	mov	r0, r3
 8001bf4:	3708      	adds	r7, #8
 8001bf6:	46bd      	mov	sp, r7
 8001bf8:	bd80      	pop	{r7, pc}

08001bfa <HAL_TIM_Base_Init>:
  *         Ex: call @ref HAL_TIM_Base_DeInit() before HAL_TIM_Base_Init()
  * @param  htim TIM Base handle
  * @retval HAL status
  */
HAL_StatusTypeDef HAL_TIM_Base_Init(TIM_HandleTypeDef *htim)
{
 8001bfa:	b580      	push	{r7, lr}
 8001bfc:	b082      	sub	sp, #8
 8001bfe:	af00      	add	r7, sp, #0
 8001c00:	6078      	str	r0, [r7, #4]
  /* Check the TIM handle allocation */
  if (htim == NULL)
 8001c02:	687b      	ldr	r3, [r7, #4]
 8001c04:	2b00      	cmp	r3, #0
 8001c06:	d101      	bne.n	8001c0c <HAL_TIM_Base_Init+0x12>
  {
    return HAL_ERROR;
 8001c08:	2301      	movs	r3, #1
 8001c0a:	e041      	b.n	8001c90 <HAL_TIM_Base_Init+0x96>
  assert_param(IS_TIM_COUNTER_MODE(htim->Init.CounterMode));
  assert_param(IS_TIM_CLOCKDIVISION_DIV(htim->Init.ClockDivision));
  assert_param(IS_TIM_PERIOD(htim, htim->Init.Period));
  assert_param(IS_TIM_AUTORELOAD_PRELOAD(htim->Init.AutoReloadPreload));

  if (htim->State == HAL_TIM_STATE_RESET)
 8001c0c:	687b      	ldr	r3, [r7, #4]
 8001c0e:	f893 303d 	ldrb.w	r3, [r3, #61]	@ 0x3d
 8001c12:	b2db      	uxtb	r3, r3
 8001c14:	2b00      	cmp	r3, #0
 8001c16:	d106      	bne.n	8001c26 <HAL_TIM_Base_Init+0x2c>
  {
    /* Allocate lock resource and initialize it */
    htim->Lock = HAL_UNLOCKED;
 8001c18:	687b      	ldr	r3, [r7, #4]
 8001c1a:	2200      	movs	r2, #0
 8001c1c:	f883 203c 	strb.w	r2, [r3, #60]	@ 0x3c
    }
    /* Init the low level hardware : GPIO, CLOCK, NVIC */
    htim->Base_MspInitCallback(htim);
#else
    /* Init the low level hardware : GPIO, CLOCK, NVIC */
    HAL_TIM_Base_MspInit(htim);
 8001c20:	6878      	ldr	r0, [r7, #4]
 8001c22:	f7ff fe53 	bl	80018cc <HAL_TIM_Base_MspInit>
#endif /* USE_HAL_TIM_REGISTER_CALLBACKS */
  }

  /* Set the TIM state */
  htim->State = HAL_TIM_STATE_BUSY;
 8001c26:	687b      	ldr	r3, [r7, #4]
 8001c28:	2202      	movs	r2, #2
 8001c2a:	f883 203d 	strb.w	r2, [r3, #61]	@ 0x3d

  /* Set the Time Base configuration */
  TIM_Base_SetConfig(htim->Instance, &htim->Init);
 8001c2e:	687b      	ldr	r3, [r7, #4]
 8001c30:	681a      	ldr	r2, [r3, #0]
 8001c32:	687b      	ldr	r3, [r7, #4]
 8001c34:	3304      	adds	r3, #4
 8001c36:	4619      	mov	r1, r3
 8001c38:	4610      	mov	r0, r2
 8001c3a:	f000 f8f5 	bl	8001e28 <TIM_Base_SetConfig>

  /* Initialize the DMA burst operation state */
  htim->DMABurstState = HAL_DMA_BURST_STATE_READY;
 8001c3e:	687b      	ldr	r3, [r7, #4]
 8001c40:	2201      	movs	r2, #1
 8001c42:	f883 2046 	strb.w	r2, [r3, #70]	@ 0x46

  /* Initialize the TIM channels state */
  TIM_CHANNEL_STATE_SET_ALL(htim, HAL_TIM_CHANNEL_STATE_READY);
 8001c46:	687b      	ldr	r3, [r7, #4]
 8001c48:	2201      	movs	r2, #1
 8001c4a:	f883 203e 	strb.w	r2, [r3, #62]	@ 0x3e
 8001c4e:	687b      	ldr	r3, [r7, #4]
 8001c50:	2201      	movs	r2, #1
 8001c52:	f883 203f 	strb.w	r2, [r3, #63]	@ 0x3f
 8001c56:	687b      	ldr	r3, [r7, #4]
 8001c58:	2201      	movs	r2, #1
 8001c5a:	f883 2040 	strb.w	r2, [r3, #64]	@ 0x40
 8001c5e:	687b      	ldr	r3, [r7, #4]
 8001c60:	2201      	movs	r2, #1
 8001c62:	f883 2041 	strb.w	r2, [r3, #65]	@ 0x41
  TIM_CHANNEL_N_STATE_SET_ALL(htim, HAL_TIM_CHANNEL_STATE_READY);
 8001c66:	687b      	ldr	r3, [r7, #4]
 8001c68:	2201      	movs	r2, #1
 8001c6a:	f883 2042 	strb.w	r2, [r3, #66]	@ 0x42
 8001c6e:	687b      	ldr	r3, [r7, #4]
 8001c70:	2201      	movs	r2, #1
 8001c72:	f883 2043 	strb.w	r2, [r3, #67]	@ 0x43
 8001c76:	687b      	ldr	r3, [r7, #4]
 8001c78:	2201      	movs	r2, #1
 8001c7a:	f883 2044 	strb.w	r2, [r3, #68]	@ 0x44
 8001c7e:	687b      	ldr	r3, [r7, #4]
 8001c80:	2201      	movs	r2, #1
 8001c82:	f883 2045 	strb.w	r2, [r3, #69]	@ 0x45

  /* Initialize the TIM state*/
  htim->State = HAL_TIM_STATE_READY;
 8001c86:	687b      	ldr	r3, [r7, #4]
 8001c88:	2201      	movs	r2, #1
 8001c8a:	f883 203d 	strb.w	r2, [r3, #61]	@ 0x3d

  return HAL_OK;
 8001c8e:	2300      	movs	r3, #0
}
 8001c90:	4618      	mov	r0, r3
 8001c92:	3708      	adds	r7, #8
 8001c94:	46bd      	mov	sp, r7
 8001c96:	bd80      	pop	{r7, pc}

08001c98 <HAL_TIM_ConfigClockSource>:
  * @param  sClockSourceConfig pointer to a TIM_ClockConfigTypeDef structure that
  *         contains the clock source information for the TIM peripheral.
  * @retval HAL status
  */
HAL_StatusTypeDef HAL_TIM_ConfigClockSource(TIM_HandleTypeDef *htim, const TIM_ClockConfigTypeDef *sClockSourceConfig)
{
 8001c98:	b580      	push	{r7, lr}
 8001c9a:	b084      	sub	sp, #16
 8001c9c:	af00      	add	r7, sp, #0
 8001c9e:	6078      	str	r0, [r7, #4]
 8001ca0:	6039      	str	r1, [r7, #0]
  HAL_StatusTypeDef status = HAL_OK;
 8001ca2:	2300      	movs	r3, #0
 8001ca4:	73fb      	strb	r3, [r7, #15]
  uint32_t tmpsmcr;

  /* Process Locked */
  __HAL_LOCK(htim);
 8001ca6:	687b      	ldr	r3, [r7, #4]
 8001ca8:	f893 303c 	ldrb.w	r3, [r3, #60]	@ 0x3c
 8001cac:	2b01      	cmp	r3, #1
 8001cae:	d101      	bne.n	8001cb4 <HAL_TIM_ConfigClockSource+0x1c>
 8001cb0:	2302      	movs	r3, #2
 8001cb2:	e0b4      	b.n	8001e1e <HAL_TIM_ConfigClockSource+0x186>
 8001cb4:	687b      	ldr	r3, [r7, #4]
 8001cb6:	2201      	movs	r2, #1
 8001cb8:	f883 203c 	strb.w	r2, [r3, #60]	@ 0x3c

  htim->State = HAL_TIM_STATE_BUSY;
 8001cbc:	687b      	ldr	r3, [r7, #4]
 8001cbe:	2202      	movs	r2, #2
 8001cc0:	f883 203d 	strb.w	r2, [r3, #61]	@ 0x3d

  /* Check the parameters */
  assert_param(IS_TIM_CLOCKSOURCE(sClockSourceConfig->ClockSource));

  /* Reset the SMS, TS, ECE, ETPS and ETRF bits */
  tmpsmcr = htim->Instance->SMCR;
 8001cc4:	687b      	ldr	r3, [r7, #4]
 8001cc6:	681b      	ldr	r3, [r3, #0]
 8001cc8:	689b      	ldr	r3, [r3, #8]
 8001cca:	60bb      	str	r3, [r7, #8]
  tmpsmcr &= ~(TIM_SMCR_SMS | TIM_SMCR_TS);
 8001ccc:	68bb      	ldr	r3, [r7, #8]
 8001cce:	f023 0377 	bic.w	r3, r3, #119	@ 0x77
 8001cd2:	60bb      	str	r3, [r7, #8]
  tmpsmcr &= ~(TIM_SMCR_ETF | TIM_SMCR_ETPS | TIM_SMCR_ECE | TIM_SMCR_ETP);
 8001cd4:	68bb      	ldr	r3, [r7, #8]
 8001cd6:	f423 437f 	bic.w	r3, r3, #65280	@ 0xff00
 8001cda:	60bb      	str	r3, [r7, #8]
  htim->Instance->SMCR = tmpsmcr;
 8001cdc:	687b      	ldr	r3, [r7, #4]
 8001cde:	681b      	ldr	r3, [r3, #0]
 8001ce0:	68ba      	ldr	r2, [r7, #8]
 8001ce2:	609a      	str	r2, [r3, #8]

  switch (sClockSourceConfig->ClockSource)
 8001ce4:	683b      	ldr	r3, [r7, #0]
 8001ce6:	681b      	ldr	r3, [r3, #0]
 8001ce8:	f5b3 5f00 	cmp.w	r3, #8192	@ 0x2000
 8001cec:	d03e      	beq.n	8001d6c <HAL_TIM_ConfigClockSource+0xd4>
 8001cee:	f5b3 5f00 	cmp.w	r3, #8192	@ 0x2000
 8001cf2:	f200 8087 	bhi.w	8001e04 <HAL_TIM_ConfigClockSource+0x16c>
 8001cf6:	f5b3 5f80 	cmp.w	r3, #4096	@ 0x1000
 8001cfa:	f000 8086 	beq.w	8001e0a <HAL_TIM_ConfigClockSource+0x172>
 8001cfe:	f5b3 5f80 	cmp.w	r3, #4096	@ 0x1000
 8001d02:	d87f      	bhi.n	8001e04 <HAL_TIM_ConfigClockSource+0x16c>
 8001d04:	2b70      	cmp	r3, #112	@ 0x70
 8001d06:	d01a      	beq.n	8001d3e <HAL_TIM_ConfigClockSource+0xa6>
 8001d08:	2b70      	cmp	r3, #112	@ 0x70
 8001d0a:	d87b      	bhi.n	8001e04 <HAL_TIM_ConfigClockSource+0x16c>
 8001d0c:	2b60      	cmp	r3, #96	@ 0x60
 8001d0e:	d050      	beq.n	8001db2 <HAL_TIM_ConfigClockSource+0x11a>
 8001d10:	2b60      	cmp	r3, #96	@ 0x60
 8001d12:	d877      	bhi.n	8001e04 <HAL_TIM_ConfigClockSource+0x16c>
 8001d14:	2b50      	cmp	r3, #80	@ 0x50
 8001d16:	d03c      	beq.n	8001d92 <HAL_TIM_ConfigClockSource+0xfa>
 8001d18:	2b50      	cmp	r3, #80	@ 0x50
 8001d1a:	d873      	bhi.n	8001e04 <HAL_TIM_ConfigClockSource+0x16c>
 8001d1c:	2b40      	cmp	r3, #64	@ 0x40
 8001d1e:	d058      	beq.n	8001dd2 <HAL_TIM_ConfigClockSource+0x13a>
 8001d20:	2b40      	cmp	r3, #64	@ 0x40
 8001d22:	d86f      	bhi.n	8001e04 <HAL_TIM_ConfigClockSource+0x16c>
 8001d24:	2b30      	cmp	r3, #48	@ 0x30
 8001d26:	d064      	beq.n	8001df2 <HAL_TIM_ConfigClockSource+0x15a>
 8001d28:	2b30      	cmp	r3, #48	@ 0x30
 8001d2a:	d86b      	bhi.n	8001e04 <HAL_TIM_ConfigClockSource+0x16c>
 8001d2c:	2b20      	cmp	r3, #32
 8001d2e:	d060      	beq.n	8001df2 <HAL_TIM_ConfigClockSource+0x15a>
 8001d30:	2b20      	cmp	r3, #32
 8001d32:	d867      	bhi.n	8001e04 <HAL_TIM_ConfigClockSource+0x16c>
 8001d34:	2b00      	cmp	r3, #0
 8001d36:	d05c      	beq.n	8001df2 <HAL_TIM_ConfigClockSource+0x15a>
 8001d38:	2b10      	cmp	r3, #16
 8001d3a:	d05a      	beq.n	8001df2 <HAL_TIM_ConfigClockSource+0x15a>
 8001d3c:	e062      	b.n	8001e04 <HAL_TIM_ConfigClockSource+0x16c>
      assert_param(IS_TIM_CLOCKPRESCALER(sClockSourceConfig->ClockPrescaler));
      assert_param(IS_TIM_CLOCKPOLARITY(sClockSourceConfig->ClockPolarity));
      assert_param(IS_TIM_CLOCKFILTER(sClockSourceConfig->ClockFilter));

      /* Configure the ETR Clock source */
      TIM_ETR_SetConfig(htim->Instance,
 8001d3e:	687b      	ldr	r3, [r7, #4]
 8001d40:	6818      	ldr	r0, [r3, #0]
                        sClockSourceConfig->ClockPrescaler,
 8001d42:	683b      	ldr	r3, [r7, #0]
 8001d44:	6899      	ldr	r1, [r3, #8]
                        sClockSourceConfig->ClockPolarity,
 8001d46:	683b      	ldr	r3, [r7, #0]
 8001d48:	685a      	ldr	r2, [r3, #4]
                        sClockSourceConfig->ClockFilter);
 8001d4a:	683b      	ldr	r3, [r7, #0]
 8001d4c:	68db      	ldr	r3, [r3, #12]
      TIM_ETR_SetConfig(htim->Instance,
 8001d4e:	f000 f98b 	bl	8002068 <TIM_ETR_SetConfig>

      /* Select the External clock mode1 and the ETRF trigger */
      tmpsmcr = htim->Instance->SMCR;
 8001d52:	687b      	ldr	r3, [r7, #4]
 8001d54:	681b      	ldr	r3, [r3, #0]
 8001d56:	689b      	ldr	r3, [r3, #8]
 8001d58:	60bb      	str	r3, [r7, #8]
      tmpsmcr |= (TIM_SLAVEMODE_EXTERNAL1 | TIM_CLOCKSOURCE_ETRMODE1);
 8001d5a:	68bb      	ldr	r3, [r7, #8]
 8001d5c:	f043 0377 	orr.w	r3, r3, #119	@ 0x77
 8001d60:	60bb      	str	r3, [r7, #8]
      /* Write to TIMx SMCR */
      htim->Instance->SMCR = tmpsmcr;
 8001d62:	687b      	ldr	r3, [r7, #4]
 8001d64:	681b      	ldr	r3, [r3, #0]
 8001d66:	68ba      	ldr	r2, [r7, #8]
 8001d68:	609a      	str	r2, [r3, #8]
      break;
 8001d6a:	e04f      	b.n	8001e0c <HAL_TIM_ConfigClockSource+0x174>
      assert_param(IS_TIM_CLOCKPRESCALER(sClockSourceConfig->ClockPrescaler));
      assert_param(IS_TIM_CLOCKPOLARITY(sClockSourceConfig->ClockPolarity));
      assert_param(IS_TIM_CLOCKFILTER(sClockSourceConfig->ClockFilter));

      /* Configure the ETR Clock source */
      TIM_ETR_SetConfig(htim->Instance,
 8001d6c:	687b      	ldr	r3, [r7, #4]
 8001d6e:	6818      	ldr	r0, [r3, #0]
                        sClockSourceConfig->ClockPrescaler,
 8001d70:	683b      	ldr	r3, [r7, #0]
 8001d72:	6899      	ldr	r1, [r3, #8]
                        sClockSourceConfig->ClockPolarity,
 8001d74:	683b      	ldr	r3, [r7, #0]
 8001d76:	685a      	ldr	r2, [r3, #4]
                        sClockSourceConfig->ClockFilter);
 8001d78:	683b      	ldr	r3, [r7, #0]
 8001d7a:	68db      	ldr	r3, [r3, #12]
      TIM_ETR_SetConfig(htim->Instance,
 8001d7c:	f000 f974 	bl	8002068 <TIM_ETR_SetConfig>
      /* Enable the External clock mode2 */
      htim->Instance->SMCR |= TIM_SMCR_ECE;
 8001d80:	687b      	ldr	r3, [r7, #4]
 8001d82:	681b      	ldr	r3, [r3, #0]
 8001d84:	689a      	ldr	r2, [r3, #8]
 8001d86:	687b      	ldr	r3, [r7, #4]
 8001d88:	681b      	ldr	r3, [r3, #0]
 8001d8a:	f442 4280 	orr.w	r2, r2, #16384	@ 0x4000
 8001d8e:	609a      	str	r2, [r3, #8]
      break;
 8001d90:	e03c      	b.n	8001e0c <HAL_TIM_ConfigClockSource+0x174>

      /* Check TI1 input conditioning related parameters */
      assert_param(IS_TIM_CLOCKPOLARITY(sClockSourceConfig->ClockPolarity));
      assert_param(IS_TIM_CLOCKFILTER(sClockSourceConfig->ClockFilter));

      TIM_TI1_ConfigInputStage(htim->Instance,
 8001d92:	687b      	ldr	r3, [r7, #4]
 8001d94:	6818      	ldr	r0, [r3, #0]
                               sClockSourceConfig->ClockPolarity,
 8001d96:	683b      	ldr	r3, [r7, #0]
 8001d98:	6859      	ldr	r1, [r3, #4]
                               sClockSourceConfig->ClockFilter);
 8001d9a:	683b      	ldr	r3, [r7, #0]
 8001d9c:	68db      	ldr	r3, [r3, #12]
      TIM_TI1_ConfigInputStage(htim->Instance,
 8001d9e:	461a      	mov	r2, r3
 8001da0:	f000 f8e8 	bl	8001f74 <TIM_TI1_ConfigInputStage>
      TIM_ITRx_SetConfig(htim->Instance, TIM_CLOCKSOURCE_TI1);
 8001da4:	687b      	ldr	r3, [r7, #4]
 8001da6:	681b      	ldr	r3, [r3, #0]
 8001da8:	2150      	movs	r1, #80	@ 0x50
 8001daa:	4618      	mov	r0, r3
 8001dac:	f000 f941 	bl	8002032 <TIM_ITRx_SetConfig>
      break;
 8001db0:	e02c      	b.n	8001e0c <HAL_TIM_ConfigClockSource+0x174>

      /* Check TI2 input conditioning related parameters */
      assert_param(IS_TIM_CLOCKPOLARITY(sClockSourceConfig->ClockPolarity));
      assert_param(IS_TIM_CLOCKFILTER(sClockSourceConfig->ClockFilter));

      TIM_TI2_ConfigInputStage(htim->Instance,
 8001db2:	687b      	ldr	r3, [r7, #4]
 8001db4:	6818      	ldr	r0, [r3, #0]
                               sClockSourceConfig->ClockPolarity,
 8001db6:	683b      	ldr	r3, [r7, #0]
 8001db8:	6859      	ldr	r1, [r3, #4]
                               sClockSourceConfig->ClockFilter);
 8001dba:	683b      	ldr	r3, [r7, #0]
 8001dbc:	68db      	ldr	r3, [r3, #12]
      TIM_TI2_ConfigInputStage(htim->Instance,
 8001dbe:	461a      	mov	r2, r3
 8001dc0:	f000 f907 	bl	8001fd2 <TIM_TI2_ConfigInputStage>
      TIM_ITRx_SetConfig(htim->Instance, TIM_CLOCKSOURCE_TI2);
 8001dc4:	687b      	ldr	r3, [r7, #4]
 8001dc6:	681b      	ldr	r3, [r3, #0]
 8001dc8:	2160      	movs	r1, #96	@ 0x60
 8001dca:	4618      	mov	r0, r3
 8001dcc:	f000 f931 	bl	8002032 <TIM_ITRx_SetConfig>
      break;
 8001dd0:	e01c      	b.n	8001e0c <HAL_TIM_ConfigClockSource+0x174>

      /* Check TI1 input conditioning related parameters */
      assert_param(IS_TIM_CLOCKPOLARITY(sClockSourceConfig->ClockPolarity));
      assert_param(IS_TIM_CLOCKFILTER(sClockSourceConfig->ClockFilter));

      TIM_TI1_ConfigInputStage(htim->Instance,
 8001dd2:	687b      	ldr	r3, [r7, #4]
 8001dd4:	6818      	ldr	r0, [r3, #0]
                               sClockSourceConfig->ClockPolarity,
 8001dd6:	683b      	ldr	r3, [r7, #0]
 8001dd8:	6859      	ldr	r1, [r3, #4]
                               sClockSourceConfig->ClockFilter);
 8001dda:	683b      	ldr	r3, [r7, #0]
 8001ddc:	68db      	ldr	r3, [r3, #12]
      TIM_TI1_ConfigInputStage(htim->Instance,
 8001dde:	461a      	mov	r2, r3
 8001de0:	f000 f8c8 	bl	8001f74 <TIM_TI1_ConfigInputStage>
      TIM_ITRx_SetConfig(htim->Instance, TIM_CLOCKSOURCE_TI1ED);
 8001de4:	687b      	ldr	r3, [r7, #4]
 8001de6:	681b      	ldr	r3, [r3, #0]
 8001de8:	2140      	movs	r1, #64	@ 0x40
 8001dea:	4618      	mov	r0, r3
 8001dec:	f000 f921 	bl	8002032 <TIM_ITRx_SetConfig>
      break;
 8001df0:	e00c      	b.n	8001e0c <HAL_TIM_ConfigClockSource+0x174>
    case TIM_CLOCKSOURCE_ITR3:
    {
      /* Check whether or not the timer instance supports internal trigger input */
      assert_param(IS_TIM_CLOCKSOURCE_ITRX_INSTANCE(htim->Instance));

      TIM_ITRx_SetConfig(htim->Instance, sClockSourceConfig->ClockSource);
 8001df2:	687b      	ldr	r3, [r7, #4]
 8001df4:	681a      	ldr	r2, [r3, #0]
 8001df6:	683b      	ldr	r3, [r7, #0]
 8001df8:	681b      	ldr	r3, [r3, #0]
 8001dfa:	4619      	mov	r1, r3
 8001dfc:	4610      	mov	r0, r2
 8001dfe:	f000 f918 	bl	8002032 <TIM_ITRx_SetConfig>
      break;
 8001e02:	e003      	b.n	8001e0c <HAL_TIM_ConfigClockSource+0x174>
    }

    default:
      status = HAL_ERROR;
 8001e04:	2301      	movs	r3, #1
 8001e06:	73fb      	strb	r3, [r7, #15]
      break;
 8001e08:	e000      	b.n	8001e0c <HAL_TIM_ConfigClockSource+0x174>
      break;
 8001e0a:	bf00      	nop
  }
  htim->State = HAL_TIM_STATE_READY;
 8001e0c:	687b      	ldr	r3, [r7, #4]
 8001e0e:	2201      	movs	r2, #1
 8001e10:	f883 203d 	strb.w	r2, [r3, #61]	@ 0x3d

  __HAL_UNLOCK(htim);
 8001e14:	687b      	ldr	r3, [r7, #4]
 8001e16:	2200      	movs	r2, #0
 8001e18:	f883 203c 	strb.w	r2, [r3, #60]	@ 0x3c

  return status;
 8001e1c:	7bfb      	ldrb	r3, [r7, #15]
}
 8001e1e:	4618      	mov	r0, r3
 8001e20:	3710      	adds	r7, #16
 8001e22:	46bd      	mov	sp, r7
 8001e24:	bd80      	pop	{r7, pc}
	...

08001e28 <TIM_Base_SetConfig>:
  * @param  TIMx TIM peripheral
  * @param  Structure TIM Base configuration structure
  * @retval None
  */
void TIM_Base_SetConfig(TIM_TypeDef *TIMx, const TIM_Base_InitTypeDef *Structure)
{
 8001e28:	b480      	push	{r7}
 8001e2a:	b085      	sub	sp, #20
 8001e2c:	af00      	add	r7, sp, #0
 8001e2e:	6078      	str	r0, [r7, #4]
 8001e30:	6039      	str	r1, [r7, #0]
  uint32_t tmpcr1;
  tmpcr1 = TIMx->CR1;
 8001e32:	687b      	ldr	r3, [r7, #4]
 8001e34:	681b      	ldr	r3, [r3, #0]
 8001e36:	60fb      	str	r3, [r7, #12]

  /* Set TIM Time Base Unit parameters ---------------------------------------*/
  if (IS_TIM_COUNTER_MODE_SELECT_INSTANCE(TIMx))
 8001e38:	687b      	ldr	r3, [r7, #4]
 8001e3a:	4a43      	ldr	r2, [pc, #268]	@ (8001f48 <TIM_Base_SetConfig+0x120>)
 8001e3c:	4293      	cmp	r3, r2
 8001e3e:	d013      	beq.n	8001e68 <TIM_Base_SetConfig+0x40>
 8001e40:	687b      	ldr	r3, [r7, #4]
 8001e42:	f1b3 4f80 	cmp.w	r3, #1073741824	@ 0x40000000
 8001e46:	d00f      	beq.n	8001e68 <TIM_Base_SetConfig+0x40>
 8001e48:	687b      	ldr	r3, [r7, #4]
 8001e4a:	4a40      	ldr	r2, [pc, #256]	@ (8001f4c <TIM_Base_SetConfig+0x124>)
 8001e4c:	4293      	cmp	r3, r2
 8001e4e:	d00b      	beq.n	8001e68 <TIM_Base_SetConfig+0x40>
 8001e50:	687b      	ldr	r3, [r7, #4]
 8001e52:	4a3f      	ldr	r2, [pc, #252]	@ (8001f50 <TIM_Base_SetConfig+0x128>)
 8001e54:	4293      	cmp	r3, r2
 8001e56:	d007      	beq.n	8001e68 <TIM_Base_SetConfig+0x40>
 8001e58:	687b      	ldr	r3, [r7, #4]
 8001e5a:	4a3e      	ldr	r2, [pc, #248]	@ (8001f54 <TIM_Base_SetConfig+0x12c>)
 8001e5c:	4293      	cmp	r3, r2
 8001e5e:	d003      	beq.n	8001e68 <TIM_Base_SetConfig+0x40>
 8001e60:	687b      	ldr	r3, [r7, #4]
 8001e62:	4a3d      	ldr	r2, [pc, #244]	@ (8001f58 <TIM_Base_SetConfig+0x130>)
 8001e64:	4293      	cmp	r3, r2
 8001e66:	d108      	bne.n	8001e7a <TIM_Base_SetConfig+0x52>
  {
    /* Select the Counter Mode */
    tmpcr1 &= ~(TIM_CR1_DIR | TIM_CR1_CMS);
 8001e68:	68fb      	ldr	r3, [r7, #12]
 8001e6a:	f023 0370 	bic.w	r3, r3, #112	@ 0x70
 8001e6e:	60fb      	str	r3, [r7, #12]
    tmpcr1 |= Structure->CounterMode;
 8001e70:	683b      	ldr	r3, [r7, #0]
 8001e72:	685b      	ldr	r3, [r3, #4]
 8001e74:	68fa      	ldr	r2, [r7, #12]
 8001e76:	4313      	orrs	r3, r2
 8001e78:	60fb      	str	r3, [r7, #12]
  }

  if (IS_TIM_CLOCK_DIVISION_INSTANCE(TIMx))
 8001e7a:	687b      	ldr	r3, [r7, #4]
 8001e7c:	4a32      	ldr	r2, [pc, #200]	@ (8001f48 <TIM_Base_SetConfig+0x120>)
 8001e7e:	4293      	cmp	r3, r2
 8001e80:	d02b      	beq.n	8001eda <TIM_Base_SetConfig+0xb2>
 8001e82:	687b      	ldr	r3, [r7, #4]
 8001e84:	f1b3 4f80 	cmp.w	r3, #1073741824	@ 0x40000000
 8001e88:	d027      	beq.n	8001eda <TIM_Base_SetConfig+0xb2>
 8001e8a:	687b      	ldr	r3, [r7, #4]
 8001e8c:	4a2f      	ldr	r2, [pc, #188]	@ (8001f4c <TIM_Base_SetConfig+0x124>)
 8001e8e:	4293      	cmp	r3, r2
 8001e90:	d023      	beq.n	8001eda <TIM_Base_SetConfig+0xb2>
 8001e92:	687b      	ldr	r3, [r7, #4]
 8001e94:	4a2e      	ldr	r2, [pc, #184]	@ (8001f50 <TIM_Base_SetConfig+0x128>)
 8001e96:	4293      	cmp	r3, r2
 8001e98:	d01f      	beq.n	8001eda <TIM_Base_SetConfig+0xb2>
 8001e9a:	687b      	ldr	r3, [r7, #4]
 8001e9c:	4a2d      	ldr	r2, [pc, #180]	@ (8001f54 <TIM_Base_SetConfig+0x12c>)
 8001e9e:	4293      	cmp	r3, r2
 8001ea0:	d01b      	beq.n	8001eda <TIM_Base_SetConfig+0xb2>
 8001ea2:	687b      	ldr	r3, [r7, #4]
 8001ea4:	4a2c      	ldr	r2, [pc, #176]	@ (8001f58 <TIM_Base_SetConfig+0x130>)
 8001ea6:	4293      	cmp	r3, r2
 8001ea8:	d017      	beq.n	8001eda <TIM_Base_SetConfig+0xb2>
 8001eaa:	687b      	ldr	r3, [r7, #4]
 8001eac:	4a2b      	ldr	r2, [pc, #172]	@ (8001f5c <TIM_Base_SetConfig+0x134>)
 8001eae:	4293      	cmp	r3, r2
 8001eb0:	d013      	beq.n	8001eda <TIM_Base_SetConfig+0xb2>
 8001eb2:	687b      	ldr	r3, [r7, #4]
 8001eb4:	4a2a      	ldr	r2, [pc, #168]	@ (8001f60 <TIM_Base_SetConfig+0x138>)
 8001eb6:	4293      	cmp	r3, r2
 8001eb8:	d00f      	beq.n	8001eda <TIM_Base_SetConfig+0xb2>
 8001eba:	687b      	ldr	r3, [r7, #4]
 8001ebc:	4a29      	ldr	r2, [pc, #164]	@ (8001f64 <TIM_Base_SetConfig+0x13c>)
 8001ebe:	4293      	cmp	r3, r2
 8001ec0:	d00b      	beq.n	8001eda <TIM_Base_SetConfig+0xb2>
 8001ec2:	687b      	ldr	r3, [r7, #4]
 8001ec4:	4a28      	ldr	r2, [pc, #160]	@ (8001f68 <TIM_Base_SetConfig+0x140>)
 8001ec6:	4293      	cmp	r3, r2
 8001ec8:	d007      	beq.n	8001eda <TIM_Base_SetConfig+0xb2>
 8001eca:	687b      	ldr	r3, [r7, #4]
 8001ecc:	4a27      	ldr	r2, [pc, #156]	@ (8001f6c <TIM_Base_SetConfig+0x144>)
 8001ece:	4293      	cmp	r3, r2
 8001ed0:	d003      	beq.n	8001eda <TIM_Base_SetConfig+0xb2>
 8001ed2:	687b      	ldr	r3, [r7, #4]
 8001ed4:	4a26      	ldr	r2, [pc, #152]	@ (8001f70 <TIM_Base_SetConfig+0x148>)
 8001ed6:	4293      	cmp	r3, r2
 8001ed8:	d108      	bne.n	8001eec <TIM_Base_SetConfig+0xc4>
  {
    /* Set the clock division */
    tmpcr1 &= ~TIM_CR1_CKD;
 8001eda:	68fb      	ldr	r3, [r7, #12]
 8001edc:	f423 7340 	bic.w	r3, r3, #768	@ 0x300
 8001ee0:	60fb      	str	r3, [r7, #12]
    tmpcr1 |= (uint32_t)Structure->ClockDivision;
 8001ee2:	683b      	ldr	r3, [r7, #0]
 8001ee4:	68db      	ldr	r3, [r3, #12]
 8001ee6:	68fa      	ldr	r2, [r7, #12]
 8001ee8:	4313      	orrs	r3, r2
 8001eea:	60fb      	str	r3, [r7, #12]
  }

  /* Set the auto-reload preload */
  MODIFY_REG(tmpcr1, TIM_CR1_ARPE, Structure->AutoReloadPreload);
 8001eec:	68fb      	ldr	r3, [r7, #12]
 8001eee:	f023 0280 	bic.w	r2, r3, #128	@ 0x80
 8001ef2:	683b      	ldr	r3, [r7, #0]
 8001ef4:	695b      	ldr	r3, [r3, #20]
 8001ef6:	4313      	orrs	r3, r2
 8001ef8:	60fb      	str	r3, [r7, #12]

  /* Set the Autoreload value */
  TIMx->ARR = (uint32_t)Structure->Period ;
 8001efa:	683b      	ldr	r3, [r7, #0]
 8001efc:	689a      	ldr	r2, [r3, #8]
 8001efe:	687b      	ldr	r3, [r7, #4]
 8001f00:	62da      	str	r2, [r3, #44]	@ 0x2c

  /* Set the Prescaler value */
  TIMx->PSC = Structure->Prescaler;
 8001f02:	683b      	ldr	r3, [r7, #0]
 8001f04:	681a      	ldr	r2, [r3, #0]
 8001f06:	687b      	ldr	r3, [r7, #4]
 8001f08:	629a      	str	r2, [r3, #40]	@ 0x28

  if (IS_TIM_REPETITION_COUNTER_INSTANCE(TIMx))
 8001f0a:	687b      	ldr	r3, [r7, #4]
 8001f0c:	4a0e      	ldr	r2, [pc, #56]	@ (8001f48 <TIM_Base_SetConfig+0x120>)
 8001f0e:	4293      	cmp	r3, r2
 8001f10:	d003      	beq.n	8001f1a <TIM_Base_SetConfig+0xf2>
 8001f12:	687b      	ldr	r3, [r7, #4]
 8001f14:	4a10      	ldr	r2, [pc, #64]	@ (8001f58 <TIM_Base_SetConfig+0x130>)
 8001f16:	4293      	cmp	r3, r2
 8001f18:	d103      	bne.n	8001f22 <TIM_Base_SetConfig+0xfa>
  {
    /* Set the Repetition Counter value */
    TIMx->RCR = Structure->RepetitionCounter;
 8001f1a:	683b      	ldr	r3, [r7, #0]
 8001f1c:	691a      	ldr	r2, [r3, #16]
 8001f1e:	687b      	ldr	r3, [r7, #4]
 8001f20:	631a      	str	r2, [r3, #48]	@ 0x30
  }

  /* Disable Update Event (UEV) with Update Generation (UG)
     by changing Update Request Source (URS) to avoid Update flag (UIF) */
  SET_BIT(TIMx->CR1, TIM_CR1_URS);
 8001f22:	687b      	ldr	r3, [r7, #4]
 8001f24:	681b      	ldr	r3, [r3, #0]
 8001f26:	f043 0204 	orr.w	r2, r3, #4
 8001f2a:	687b      	ldr	r3, [r7, #4]
 8001f2c:	601a      	str	r2, [r3, #0]

  /* Generate an update event to reload the Prescaler
     and the repetition counter (only for advanced timer) value immediately */
  TIMx->EGR = TIM_EGR_UG;
 8001f2e:	687b      	ldr	r3, [r7, #4]
 8001f30:	2201      	movs	r2, #1
 8001f32:	615a      	str	r2, [r3, #20]

  TIMx->CR1 = tmpcr1;
 8001f34:	687b      	ldr	r3, [r7, #4]
 8001f36:	68fa      	ldr	r2, [r7, #12]
 8001f38:	601a      	str	r2, [r3, #0]
}
 8001f3a:	bf00      	nop
 8001f3c:	3714      	adds	r7, #20
 8001f3e:	46bd      	mov	sp, r7
 8001f40:	f85d 7b04 	ldr.w	r7, [sp], #4
 8001f44:	4770      	bx	lr
 8001f46:	bf00      	nop
 8001f48:	40010000 	.word	0x40010000
 8001f4c:	40000400 	.word	0x40000400
 8001f50:	40000800 	.word	0x40000800
 8001f54:	40000c00 	.word	0x40000c00
 8001f58:	40010400 	.word	0x40010400
 8001f5c:	40014000 	.word	0x40014000
 8001f60:	40014400 	.word	0x40014400
 8001f64:	40014800 	.word	0x40014800
 8001f68:	40001800 	.word	0x40001800
 8001f6c:	40001c00 	.word	0x40001c00
 8001f70:	40002000 	.word	0x40002000

08001f74 <TIM_TI1_ConfigInputStage>:
  * @param  TIM_ICFilter Specifies the Input Capture Filter.
  *          This parameter must be a value between 0x00 and 0x0F.
  * @retval None
  */
static void TIM_TI1_ConfigInputStage(TIM_TypeDef *TIMx, uint32_t TIM_ICPolarity, uint32_t TIM_ICFilter)
{
 8001f74:	b480      	push	{r7}
 8001f76:	b087      	sub	sp, #28
 8001f78:	af00      	add	r7, sp, #0
 8001f7a:	60f8      	str	r0, [r7, #12]
 8001f7c:	60b9      	str	r1, [r7, #8]
 8001f7e:	607a      	str	r2, [r7, #4]
  uint32_t tmpccmr1;
  uint32_t tmpccer;

  /* Disable the Channel 1: Reset the CC1E Bit */
  tmpccer = TIMx->CCER;
 8001f80:	68fb      	ldr	r3, [r7, #12]
 8001f82:	6a1b      	ldr	r3, [r3, #32]
 8001f84:	617b      	str	r3, [r7, #20]
  TIMx->CCER &= ~TIM_CCER_CC1E;
 8001f86:	68fb      	ldr	r3, [r7, #12]
 8001f88:	6a1b      	ldr	r3, [r3, #32]
 8001f8a:	f023 0201 	bic.w	r2, r3, #1
 8001f8e:	68fb      	ldr	r3, [r7, #12]
 8001f90:	621a      	str	r2, [r3, #32]
  tmpccmr1 = TIMx->CCMR1;
 8001f92:	68fb      	ldr	r3, [r7, #12]
 8001f94:	699b      	ldr	r3, [r3, #24]
 8001f96:	613b      	str	r3, [r7, #16]

  /* Set the filter */
  tmpccmr1 &= ~TIM_CCMR1_IC1F;
 8001f98:	693b      	ldr	r3, [r7, #16]
 8001f9a:	f023 03f0 	bic.w	r3, r3, #240	@ 0xf0
 8001f9e:	613b      	str	r3, [r7, #16]
  tmpccmr1 |= (TIM_ICFilter << 4U);
 8001fa0:	687b      	ldr	r3, [r7, #4]
 8001fa2:	011b      	lsls	r3, r3, #4
 8001fa4:	693a      	ldr	r2, [r7, #16]
 8001fa6:	4313      	orrs	r3, r2
 8001fa8:	613b      	str	r3, [r7, #16]

  /* Select the Polarity and set the CC1E Bit */
  tmpccer &= ~(TIM_CCER_CC1P | TIM_CCER_CC1NP);
 8001faa:	697b      	ldr	r3, [r7, #20]
 8001fac:	f023 030a 	bic.w	r3, r3, #10
 8001fb0:	617b      	str	r3, [r7, #20]
  tmpccer |= TIM_ICPolarity;
 8001fb2:	697a      	ldr	r2, [r7, #20]
 8001fb4:	68bb      	ldr	r3, [r7, #8]
 8001fb6:	4313      	orrs	r3, r2
 8001fb8:	617b      	str	r3, [r7, #20]

  /* Write to TIMx CCMR1 and CCER registers */
  TIMx->CCMR1 = tmpccmr1;
 8001fba:	68fb      	ldr	r3, [r7, #12]
 8001fbc:	693a      	ldr	r2, [r7, #16]
 8001fbe:	619a      	str	r2, [r3, #24]
  TIMx->CCER = tmpccer;
 8001fc0:	68fb      	ldr	r3, [r7, #12]
 8001fc2:	697a      	ldr	r2, [r7, #20]
 8001fc4:	621a      	str	r2, [r3, #32]
}
 8001fc6:	bf00      	nop
 8001fc8:	371c      	adds	r7, #28
 8001fca:	46bd      	mov	sp, r7
 8001fcc:	f85d 7b04 	ldr.w	r7, [sp], #4
 8001fd0:	4770      	bx	lr

08001fd2 <TIM_TI2_ConfigInputStage>:
  * @param  TIM_ICFilter Specifies the Input Capture Filter.
  *          This parameter must be a value between 0x00 and 0x0F.
  * @retval None
  */
static void TIM_TI2_ConfigInputStage(TIM_TypeDef *TIMx, uint32_t TIM_ICPolarity, uint32_t TIM_ICFilter)
{
 8001fd2:	b480      	push	{r7}
 8001fd4:	b087      	sub	sp, #28
 8001fd6:	af00      	add	r7, sp, #0
 8001fd8:	60f8      	str	r0, [r7, #12]
 8001fda:	60b9      	str	r1, [r7, #8]
 8001fdc:	607a      	str	r2, [r7, #4]
  uint32_t tmpccmr1;
  uint32_t tmpccer;

  /* Disable the Channel 2: Reset the CC2E Bit */
  tmpccer = TIMx->CCER;
 8001fde:	68fb      	ldr	r3, [r7, #12]
 8001fe0:	6a1b      	ldr	r3, [r3, #32]
 8001fe2:	617b      	str	r3, [r7, #20]
  TIMx->CCER &= ~TIM_CCER_CC2E;
 8001fe4:	68fb      	ldr	r3, [r7, #12]
 8001fe6:	6a1b      	ldr	r3, [r3, #32]
 8001fe8:	f023 0210 	bic.w	r2, r3, #16
 8001fec:	68fb      	ldr	r3, [r7, #12]
 8001fee:	621a      	str	r2, [r3, #32]
  tmpccmr1 = TIMx->CCMR1;
 8001ff0:	68fb      	ldr	r3, [r7, #12]
 8001ff2:	699b      	ldr	r3, [r3, #24]
 8001ff4:	613b      	str	r3, [r7, #16]

  /* Set the filter */
  tmpccmr1 &= ~TIM_CCMR1_IC2F;
 8001ff6:	693b      	ldr	r3, [r7, #16]
 8001ff8:	f423 4370 	bic.w	r3, r3, #61440	@ 0xf000
 8001ffc:	613b      	str	r3, [r7, #16]
  tmpccmr1 |= (TIM_ICFilter << 12U);
 8001ffe:	687b      	ldr	r3, [r7, #4]
 8002000:	031b      	lsls	r3, r3, #12
 8002002:	693a      	ldr	r2, [r7, #16]
 8002004:	4313      	orrs	r3, r2
 8002006:	613b      	str	r3, [r7, #16]

  /* Select the Polarity and set the CC2E Bit */
  tmpccer &= ~(TIM_CCER_CC2P | TIM_CCER_CC2NP);
 8002008:	697b      	ldr	r3, [r7, #20]
 800200a:	f023 03a0 	bic.w	r3, r3, #160	@ 0xa0
 800200e:	617b      	str	r3, [r7, #20]
  tmpccer |= (TIM_ICPolarity << 4U);
 8002010:	68bb      	ldr	r3, [r7, #8]
 8002012:	011b      	lsls	r3, r3, #4
 8002014:	697a      	ldr	r2, [r7, #20]
 8002016:	4313      	orrs	r3, r2
 8002018:	617b      	str	r3, [r7, #20]

  /* Write to TIMx CCMR1 and CCER registers */
  TIMx->CCMR1 = tmpccmr1 ;
 800201a:	68fb      	ldr	r3, [r7, #12]
 800201c:	693a      	ldr	r2, [r7, #16]
 800201e:	619a      	str	r2, [r3, #24]
  TIMx->CCER = tmpccer;
 8002020:	68fb      	ldr	r3, [r7, #12]
 8002022:	697a      	ldr	r2, [r7, #20]
 8002024:	621a      	str	r2, [r3, #32]
}
 8002026:	bf00      	nop
 8002028:	371c      	adds	r7, #28
 800202a:	46bd      	mov	sp, r7
 800202c:	f85d 7b04 	ldr.w	r7, [sp], #4
 8002030:	4770      	bx	lr

08002032 <TIM_ITRx_SetConfig>:
  *            @arg TIM_TS_TI2FP2: Filtered Timer Input 2
  *            @arg TIM_TS_ETRF: External Trigger input
  * @retval None
  */
static void TIM_ITRx_SetConfig(TIM_TypeDef *TIMx, uint32_t InputTriggerSource)
{
 8002032:	b480      	push	{r7}
 8002034:	b085      	sub	sp, #20
 8002036:	af00      	add	r7, sp, #0
 8002038:	6078      	str	r0, [r7, #4]
 800203a:	6039      	str	r1, [r7, #0]
  uint32_t tmpsmcr;

  /* Get the TIMx SMCR register value */
  tmpsmcr = TIMx->SMCR;
 800203c:	687b      	ldr	r3, [r7, #4]
 800203e:	689b      	ldr	r3, [r3, #8]
 8002040:	60fb      	str	r3, [r7, #12]
  /* Reset the TS Bits */
  tmpsmcr &= ~TIM_SMCR_TS;
 8002042:	68fb      	ldr	r3, [r7, #12]
 8002044:	f023 0370 	bic.w	r3, r3, #112	@ 0x70
 8002048:	60fb      	str	r3, [r7, #12]
  /* Set the Input Trigger source and the slave mode*/
  tmpsmcr |= (InputTriggerSource | TIM_SLAVEMODE_EXTERNAL1);
 800204a:	683a      	ldr	r2, [r7, #0]
 800204c:	68fb      	ldr	r3, [r7, #12]
 800204e:	4313      	orrs	r3, r2
 8002050:	f043 0307 	orr.w	r3, r3, #7
 8002054:	60fb      	str	r3, [r7, #12]
  /* Write to TIMx SMCR */
  TIMx->SMCR = tmpsmcr;
 8002056:	687b      	ldr	r3, [r7, #4]
 8002058:	68fa      	ldr	r2, [r7, #12]
 800205a:	609a      	str	r2, [r3, #8]
}
 800205c:	bf00      	nop
 800205e:	3714      	adds	r7, #20
 8002060:	46bd      	mov	sp, r7
 8002062:	f85d 7b04 	ldr.w	r7, [sp], #4
 8002066:	4770      	bx	lr

08002068 <TIM_ETR_SetConfig>:
  *          This parameter must be a value between 0x00 and 0x0F
  * @retval None
  */
void TIM_ETR_SetConfig(TIM_TypeDef *TIMx, uint32_t TIM_ExtTRGPrescaler,
                       uint32_t TIM_ExtTRGPolarity, uint32_t ExtTRGFilter)
{
 8002068:	b480      	push	{r7}
 800206a:	b087      	sub	sp, #28
 800206c:	af00      	add	r7, sp, #0
 800206e:	60f8      	str	r0, [r7, #12]
 8002070:	60b9      	str	r1, [r7, #8]
 8002072:	607a      	str	r2, [r7, #4]
 8002074:	603b      	str	r3, [r7, #0]
  uint32_t tmpsmcr;

  tmpsmcr = TIMx->SMCR;
 8002076:	68fb      	ldr	r3, [r7, #12]
 8002078:	689b      	ldr	r3, [r3, #8]
 800207a:	617b      	str	r3, [r7, #20]

  /* Reset the ETR Bits */
  tmpsmcr &= ~(TIM_SMCR_ETF | TIM_SMCR_ETPS | TIM_SMCR_ECE | TIM_SMCR_ETP);
 800207c:	697b      	ldr	r3, [r7, #20]
 800207e:	f423 437f 	bic.w	r3, r3, #65280	@ 0xff00
 8002082:	617b      	str	r3, [r7, #20]

  /* Set the Prescaler, the Filter value and the Polarity */
  tmpsmcr |= (uint32_t)(TIM_ExtTRGPrescaler | (TIM_ExtTRGPolarity | (ExtTRGFilter << 8U)));
 8002084:	683b      	ldr	r3, [r7, #0]
 8002086:	021a      	lsls	r2, r3, #8
 8002088:	687b      	ldr	r3, [r7, #4]
 800208a:	431a      	orrs	r2, r3
 800208c:	68bb      	ldr	r3, [r7, #8]
 800208e:	4313      	orrs	r3, r2
 8002090:	697a      	ldr	r2, [r7, #20]
 8002092:	4313      	orrs	r3, r2
 8002094:	617b      	str	r3, [r7, #20]

  /* Write to TIMx SMCR */
  TIMx->SMCR = tmpsmcr;
 8002096:	68fb      	ldr	r3, [r7, #12]
 8002098:	697a      	ldr	r2, [r7, #20]
 800209a:	609a      	str	r2, [r3, #8]
}
 800209c:	bf00      	nop
 800209e:	371c      	adds	r7, #28
 80020a0:	46bd      	mov	sp, r7
 80020a2:	f85d 7b04 	ldr.w	r7, [sp], #4
 80020a6:	4770      	bx	lr

080020a8 <HAL_TIMEx_MasterConfigSynchronization>:
  *         mode.
  * @retval HAL status
  */
HAL_StatusTypeDef HAL_TIMEx_MasterConfigSynchronization(TIM_HandleTypeDef *htim,
                                                        const TIM_MasterConfigTypeDef *sMasterConfig)
{
 80020a8:	b480      	push	{r7}
 80020aa:	b085      	sub	sp, #20
 80020ac:	af00      	add	r7, sp, #0
 80020ae:	6078      	str	r0, [r7, #4]
 80020b0:	6039      	str	r1, [r7, #0]
  assert_param(IS_TIM_MASTER_INSTANCE(htim->Instance));
  assert_param(IS_TIM_TRGO_SOURCE(sMasterConfig->MasterOutputTrigger));
  assert_param(IS_TIM_MSM_STATE(sMasterConfig->MasterSlaveMode));

  /* Check input state */
  __HAL_LOCK(htim);
 80020b2:	687b      	ldr	r3, [r7, #4]
 80020b4:	f893 303c 	ldrb.w	r3, [r3, #60]	@ 0x3c
 80020b8:	2b01      	cmp	r3, #1
 80020ba:	d101      	bne.n	80020c0 <HAL_TIMEx_MasterConfigSynchronization+0x18>
 80020bc:	2302      	movs	r3, #2
 80020be:	e05a      	b.n	8002176 <HAL_TIMEx_MasterConfigSynchronization+0xce>
 80020c0:	687b      	ldr	r3, [r7, #4]
 80020c2:	2201      	movs	r2, #1
 80020c4:	f883 203c 	strb.w	r2, [r3, #60]	@ 0x3c

  /* Change the handler state */
  htim->State = HAL_TIM_STATE_BUSY;
 80020c8:	687b      	ldr	r3, [r7, #4]
 80020ca:	2202      	movs	r2, #2
 80020cc:	f883 203d 	strb.w	r2, [r3, #61]	@ 0x3d

  /* Get the TIMx CR2 register value */
  tmpcr2 = htim->Instance->CR2;
 80020d0:	687b      	ldr	r3, [r7, #4]
 80020d2:	681b      	ldr	r3, [r3, #0]
 80020d4:	685b      	ldr	r3, [r3, #4]
 80020d6:	60fb      	str	r3, [r7, #12]

  /* Get the TIMx SMCR register value */
  tmpsmcr = htim->Instance->SMCR;
 80020d8:	687b      	ldr	r3, [r7, #4]
 80020da:	681b      	ldr	r3, [r3, #0]
 80020dc:	689b      	ldr	r3, [r3, #8]
 80020de:	60bb      	str	r3, [r7, #8]

  /* Reset the MMS Bits */
  tmpcr2 &= ~TIM_CR2_MMS;
 80020e0:	68fb      	ldr	r3, [r7, #12]
 80020e2:	f023 0370 	bic.w	r3, r3, #112	@ 0x70
 80020e6:	60fb      	str	r3, [r7, #12]
  /* Select the TRGO source */
  tmpcr2 |=  sMasterConfig->MasterOutputTrigger;
 80020e8:	683b      	ldr	r3, [r7, #0]
 80020ea:	681b      	ldr	r3, [r3, #0]
 80020ec:	68fa      	ldr	r2, [r7, #12]
 80020ee:	4313      	orrs	r3, r2
 80020f0:	60fb      	str	r3, [r7, #12]

  /* Update TIMx CR2 */
  htim->Instance->CR2 = tmpcr2;
 80020f2:	687b      	ldr	r3, [r7, #4]
 80020f4:	681b      	ldr	r3, [r3, #0]
 80020f6:	68fa      	ldr	r2, [r7, #12]
 80020f8:	605a      	str	r2, [r3, #4]

  if (IS_TIM_SLAVE_INSTANCE(htim->Instance))
 80020fa:	687b      	ldr	r3, [r7, #4]
 80020fc:	681b      	ldr	r3, [r3, #0]
 80020fe:	4a21      	ldr	r2, [pc, #132]	@ (8002184 <HAL_TIMEx_MasterConfigSynchronization+0xdc>)
 8002100:	4293      	cmp	r3, r2
 8002102:	d022      	beq.n	800214a <HAL_TIMEx_MasterConfigSynchronization+0xa2>
 8002104:	687b      	ldr	r3, [r7, #4]
 8002106:	681b      	ldr	r3, [r3, #0]
 8002108:	f1b3 4f80 	cmp.w	r3, #1073741824	@ 0x40000000
 800210c:	d01d      	beq.n	800214a <HAL_TIMEx_MasterConfigSynchronization+0xa2>
 800210e:	687b      	ldr	r3, [r7, #4]
 8002110:	681b      	ldr	r3, [r3, #0]
 8002112:	4a1d      	ldr	r2, [pc, #116]	@ (8002188 <HAL_TIMEx_MasterConfigSynchronization+0xe0>)
 8002114:	4293      	cmp	r3, r2
 8002116:	d018      	beq.n	800214a <HAL_TIMEx_MasterConfigSynchronization+0xa2>
 8002118:	687b      	ldr	r3, [r7, #4]
 800211a:	681b      	ldr	r3, [r3, #0]
 800211c:	4a1b      	ldr	r2, [pc, #108]	@ (800218c <HAL_TIMEx_MasterConfigSynchronization+0xe4>)
 800211e:	4293      	cmp	r3, r2
 8002120:	d013      	beq.n	800214a <HAL_TIMEx_MasterConfigSynchronization+0xa2>
 8002122:	687b      	ldr	r3, [r7, #4]
 8002124:	681b      	ldr	r3, [r3, #0]
 8002126:	4a1a      	ldr	r2, [pc, #104]	@ (8002190 <HAL_TIMEx_MasterConfigSynchronization+0xe8>)
 8002128:	4293      	cmp	r3, r2
 800212a:	d00e      	beq.n	800214a <HAL_TIMEx_MasterConfigSynchronization+0xa2>
 800212c:	687b      	ldr	r3, [r7, #4]
 800212e:	681b      	ldr	r3, [r3, #0]
 8002130:	4a18      	ldr	r2, [pc, #96]	@ (8002194 <HAL_TIMEx_MasterConfigSynchronization+0xec>)
 8002132:	4293      	cmp	r3, r2
 8002134:	d009      	beq.n	800214a <HAL_TIMEx_MasterConfigSynchronization+0xa2>
 8002136:	687b      	ldr	r3, [r7, #4]
 8002138:	681b      	ldr	r3, [r3, #0]
 800213a:	4a17      	ldr	r2, [pc, #92]	@ (8002198 <HAL_TIMEx_MasterConfigSynchronization+0xf0>)
 800213c:	4293      	cmp	r3, r2
 800213e:	d004      	beq.n	800214a <HAL_TIMEx_MasterConfigSynchronization+0xa2>
 8002140:	687b      	ldr	r3, [r7, #4]
 8002142:	681b      	ldr	r3, [r3, #0]
 8002144:	4a15      	ldr	r2, [pc, #84]	@ (800219c <HAL_TIMEx_MasterConfigSynchronization+0xf4>)
 8002146:	4293      	cmp	r3, r2
 8002148:	d10c      	bne.n	8002164 <HAL_TIMEx_MasterConfigSynchronization+0xbc>
  {
    /* Reset the MSM Bit */
    tmpsmcr &= ~TIM_SMCR_MSM;
 800214a:	68bb      	ldr	r3, [r7, #8]
 800214c:	f023 0380 	bic.w	r3, r3, #128	@ 0x80
 8002150:	60bb      	str	r3, [r7, #8]
    /* Set master mode */
    tmpsmcr |= sMasterConfig->MasterSlaveMode;
 8002152:	683b      	ldr	r3, [r7, #0]
 8002154:	685b      	ldr	r3, [r3, #4]
 8002156:	68ba      	ldr	r2, [r7, #8]
 8002158:	4313      	orrs	r3, r2
 800215a:	60bb      	str	r3, [r7, #8]

    /* Update TIMx SMCR */
    htim->Instance->SMCR = tmpsmcr;
 800215c:	687b      	ldr	r3, [r7, #4]
 800215e:	681b      	ldr	r3, [r3, #0]
 8002160:	68ba      	ldr	r2, [r7, #8]
 8002162:	609a      	str	r2, [r3, #8]
  }

  /* Change the htim state */
  htim->State = HAL_TIM_STATE_READY;
 8002164:	687b      	ldr	r3, [r7, #4]
 8002166:	2201      	movs	r2, #1
 8002168:	f883 203d 	strb.w	r2, [r3, #61]	@ 0x3d

  __HAL_UNLOCK(htim);
 800216c:	687b      	ldr	r3, [r7, #4]
 800216e:	2200      	movs	r2, #0
 8002170:	f883 203c 	strb.w	r2, [r3, #60]	@ 0x3c

  return HAL_OK;
 8002174:	2300      	movs	r3, #0
}
 8002176:	4618      	mov	r0, r3
 8002178:	3714      	adds	r7, #20
 800217a:	46bd      	mov	sp, r7
 800217c:	f85d 7b04 	ldr.w	r7, [sp], #4
 8002180:	4770      	bx	lr
 8002182:	bf00      	nop
 8002184:	40010000 	.word	0x40010000
 8002188:	40000400 	.word	0x40000400
 800218c:	40000800 	.word	0x40000800
 8002190:	40000c00 	.word	0x40000c00
 8002194:	40010400 	.word	0x40010400
 8002198:	40014000 	.word	0x40014000
 800219c:	40001800 	.word	0x40001800

080021a0 <LL_EXTI_EnableIT_0_31>:
  * @note   (*): Available in some devices
  * @note   Please check each device line mapping for EXTI Line availability
  * @retval None
  */
__STATIC_INLINE void LL_EXTI_EnableIT_0_31(uint32_t ExtiLine)
{
 80021a0:	b480      	push	{r7}
 80021a2:	b083      	sub	sp, #12
 80021a4:	af00      	add	r7, sp, #0
 80021a6:	6078      	str	r0, [r7, #4]
  SET_BIT(EXTI->IMR, ExtiLine);
 80021a8:	4b05      	ldr	r3, [pc, #20]	@ (80021c0 <LL_EXTI_EnableIT_0_31+0x20>)
 80021aa:	681a      	ldr	r2, [r3, #0]
 80021ac:	4904      	ldr	r1, [pc, #16]	@ (80021c0 <LL_EXTI_EnableIT_0_31+0x20>)
 80021ae:	687b      	ldr	r3, [r7, #4]
 80021b0:	4313      	orrs	r3, r2
 80021b2:	600b      	str	r3, [r1, #0]
}
 80021b4:	bf00      	nop
 80021b6:	370c      	adds	r7, #12
 80021b8:	46bd      	mov	sp, r7
 80021ba:	f85d 7b04 	ldr.w	r7, [sp], #4
 80021be:	4770      	bx	lr
 80021c0:	40013c00 	.word	0x40013c00

080021c4 <LL_EXTI_DisableIT_0_31>:
  * @note   (*): Available in some devices
  * @note   Please check each device line mapping for EXTI Line availability
  * @retval None
  */
__STATIC_INLINE void LL_EXTI_DisableIT_0_31(uint32_t ExtiLine)
{
 80021c4:	b480      	push	{r7}
 80021c6:	b083      	sub	sp, #12
 80021c8:	af00      	add	r7, sp, #0
 80021ca:	6078      	str	r0, [r7, #4]
  CLEAR_BIT(EXTI->IMR, ExtiLine);
 80021cc:	4b06      	ldr	r3, [pc, #24]	@ (80021e8 <LL_EXTI_DisableIT_0_31+0x24>)
 80021ce:	681a      	ldr	r2, [r3, #0]
 80021d0:	687b      	ldr	r3, [r7, #4]
 80021d2:	43db      	mvns	r3, r3
 80021d4:	4904      	ldr	r1, [pc, #16]	@ (80021e8 <LL_EXTI_DisableIT_0_31+0x24>)
 80021d6:	4013      	ands	r3, r2
 80021d8:	600b      	str	r3, [r1, #0]
}
 80021da:	bf00      	nop
 80021dc:	370c      	adds	r7, #12
 80021de:	46bd      	mov	sp, r7
 80021e0:	f85d 7b04 	ldr.w	r7, [sp], #4
 80021e4:	4770      	bx	lr
 80021e6:	bf00      	nop
 80021e8:	40013c00 	.word	0x40013c00

080021ec <LL_EXTI_EnableEvent_0_31>:
  * @note   (*): Available in some devices
  * @note   Please check each device line mapping for EXTI Line availability
  * @retval None
  */
__STATIC_INLINE void LL_EXTI_EnableEvent_0_31(uint32_t ExtiLine)
{
 80021ec:	b480      	push	{r7}
 80021ee:	b083      	sub	sp, #12
 80021f0:	af00      	add	r7, sp, #0
 80021f2:	6078      	str	r0, [r7, #4]
  SET_BIT(EXTI->EMR, ExtiLine);
 80021f4:	4b05      	ldr	r3, [pc, #20]	@ (800220c <LL_EXTI_EnableEvent_0_31+0x20>)
 80021f6:	685a      	ldr	r2, [r3, #4]
 80021f8:	4904      	ldr	r1, [pc, #16]	@ (800220c <LL_EXTI_EnableEvent_0_31+0x20>)
 80021fa:	687b      	ldr	r3, [r7, #4]
 80021fc:	4313      	orrs	r3, r2
 80021fe:	604b      	str	r3, [r1, #4]

}
 8002200:	bf00      	nop
 8002202:	370c      	adds	r7, #12
 8002204:	46bd      	mov	sp, r7
 8002206:	f85d 7b04 	ldr.w	r7, [sp], #4
 800220a:	4770      	bx	lr
 800220c:	40013c00 	.word	0x40013c00

08002210 <LL_EXTI_DisableEvent_0_31>:
  * @note   (*): Available in some devices
  * @note   Please check each device line mapping for EXTI Line availability
  * @retval None
  */
__STATIC_INLINE void LL_EXTI_DisableEvent_0_31(uint32_t ExtiLine)
{
 8002210:	b480      	push	{r7}
 8002212:	b083      	sub	sp, #12
 8002214:	af00      	add	r7, sp, #0
 8002216:	6078      	str	r0, [r7, #4]
  CLEAR_BIT(EXTI->EMR, ExtiLine);
 8002218:	4b06      	ldr	r3, [pc, #24]	@ (8002234 <LL_EXTI_DisableEvent_0_31+0x24>)
 800221a:	685a      	ldr	r2, [r3, #4]
 800221c:	687b      	ldr	r3, [r7, #4]
 800221e:	43db      	mvns	r3, r3
 8002220:	4904      	ldr	r1, [pc, #16]	@ (8002234 <LL_EXTI_DisableEvent_0_31+0x24>)
 8002222:	4013      	ands	r3, r2
 8002224:	604b      	str	r3, [r1, #4]
}
 8002226:	bf00      	nop
 8002228:	370c      	adds	r7, #12
 800222a:	46bd      	mov	sp, r7
 800222c:	f85d 7b04 	ldr.w	r7, [sp], #4
 8002230:	4770      	bx	lr
 8002232:	bf00      	nop
 8002234:	40013c00 	.word	0x40013c00

08002238 <LL_EXTI_EnableRisingTrig_0_31>:
  * @note   (*): Available in some devices
  * @note   Please check each device line mapping for EXTI Line availability
  * @retval None
  */
__STATIC_INLINE void LL_EXTI_EnableRisingTrig_0_31(uint32_t ExtiLine)
{
 8002238:	b480      	push	{r7}
 800223a:	b083      	sub	sp, #12
 800223c:	af00      	add	r7, sp, #0
 800223e:	6078      	str	r0, [r7, #4]
  SET_BIT(EXTI->RTSR, ExtiLine);
 8002240:	4b05      	ldr	r3, [pc, #20]	@ (8002258 <LL_EXTI_EnableRisingTrig_0_31+0x20>)
 8002242:	689a      	ldr	r2, [r3, #8]
 8002244:	4904      	ldr	r1, [pc, #16]	@ (8002258 <LL_EXTI_EnableRisingTrig_0_31+0x20>)
 8002246:	687b      	ldr	r3, [r7, #4]
 8002248:	4313      	orrs	r3, r2
 800224a:	608b      	str	r3, [r1, #8]

}
 800224c:	bf00      	nop
 800224e:	370c      	adds	r7, #12
 8002250:	46bd      	mov	sp, r7
 8002252:	f85d 7b04 	ldr.w	r7, [sp], #4
 8002256:	4770      	bx	lr
 8002258:	40013c00 	.word	0x40013c00

0800225c <LL_EXTI_DisableRisingTrig_0_31>:
  * @note   (*): Available in some devices
  * @note   Please check each device line mapping for EXTI Line availability
  * @retval None
  */
__STATIC_INLINE void LL_EXTI_DisableRisingTrig_0_31(uint32_t ExtiLine)
{
 800225c:	b480      	push	{r7}
 800225e:	b083      	sub	sp, #12
 8002260:	af00      	add	r7, sp, #0
 8002262:	6078      	str	r0, [r7, #4]
  CLEAR_BIT(EXTI->RTSR, ExtiLine);
 8002264:	4b06      	ldr	r3, [pc, #24]	@ (8002280 <LL_EXTI_DisableRisingTrig_0_31+0x24>)
 8002266:	689a      	ldr	r2, [r3, #8]
 8002268:	687b      	ldr	r3, [r7, #4]
 800226a:	43db      	mvns	r3, r3
 800226c:	4904      	ldr	r1, [pc, #16]	@ (8002280 <LL_EXTI_DisableRisingTrig_0_31+0x24>)
 800226e:	4013      	ands	r3, r2
 8002270:	608b      	str	r3, [r1, #8]

}
 8002272:	bf00      	nop
 8002274:	370c      	adds	r7, #12
 8002276:	46bd      	mov	sp, r7
 8002278:	f85d 7b04 	ldr.w	r7, [sp], #4
 800227c:	4770      	bx	lr
 800227e:	bf00      	nop
 8002280:	40013c00 	.word	0x40013c00

08002284 <LL_EXTI_EnableFallingTrig_0_31>:
  * @note   (*): Available in some devices
  * @note   Please check each device line mapping for EXTI Line availability
  * @retval None
  */
__STATIC_INLINE void LL_EXTI_EnableFallingTrig_0_31(uint32_t ExtiLine)
{
 8002284:	b480      	push	{r7}
 8002286:	b083      	sub	sp, #12
 8002288:	af00      	add	r7, sp, #0
 800228a:	6078      	str	r0, [r7, #4]
  SET_BIT(EXTI->FTSR, ExtiLine);
 800228c:	4b05      	ldr	r3, [pc, #20]	@ (80022a4 <LL_EXTI_EnableFallingTrig_0_31+0x20>)
 800228e:	68da      	ldr	r2, [r3, #12]
 8002290:	4904      	ldr	r1, [pc, #16]	@ (80022a4 <LL_EXTI_EnableFallingTrig_0_31+0x20>)
 8002292:	687b      	ldr	r3, [r7, #4]
 8002294:	4313      	orrs	r3, r2
 8002296:	60cb      	str	r3, [r1, #12]
}
 8002298:	bf00      	nop
 800229a:	370c      	adds	r7, #12
 800229c:	46bd      	mov	sp, r7
 800229e:	f85d 7b04 	ldr.w	r7, [sp], #4
 80022a2:	4770      	bx	lr
 80022a4:	40013c00 	.word	0x40013c00

080022a8 <LL_EXTI_DisableFallingTrig_0_31>:
  * @note   (*): Available in some devices
  * @note   Please check each device line mapping for EXTI Line availability
  * @retval None
  */
__STATIC_INLINE void LL_EXTI_DisableFallingTrig_0_31(uint32_t ExtiLine)
{
 80022a8:	b480      	push	{r7}
 80022aa:	b083      	sub	sp, #12
 80022ac:	af00      	add	r7, sp, #0
 80022ae:	6078      	str	r0, [r7, #4]
  CLEAR_BIT(EXTI->FTSR, ExtiLine);
 80022b0:	4b06      	ldr	r3, [pc, #24]	@ (80022cc <LL_EXTI_DisableFallingTrig_0_31+0x24>)
 80022b2:	68da      	ldr	r2, [r3, #12]
 80022b4:	687b      	ldr	r3, [r7, #4]
 80022b6:	43db      	mvns	r3, r3
 80022b8:	4904      	ldr	r1, [pc, #16]	@ (80022cc <LL_EXTI_DisableFallingTrig_0_31+0x24>)
 80022ba:	4013      	ands	r3, r2
 80022bc:	60cb      	str	r3, [r1, #12]
}
 80022be:	bf00      	nop
 80022c0:	370c      	adds	r7, #12
 80022c2:	46bd      	mov	sp, r7
 80022c4:	f85d 7b04 	ldr.w	r7, [sp], #4
 80022c8:	4770      	bx	lr
 80022ca:	bf00      	nop
 80022cc:	40013c00 	.word	0x40013c00

080022d0 <LL_EXTI_Init>:
  * @retval An ErrorStatus enumeration value:
  *          - SUCCESS: EXTI registers are initialized
  *          - ERROR: not applicable
  */
uint32_t LL_EXTI_Init(LL_EXTI_InitTypeDef *EXTI_InitStruct)
{
 80022d0:	b580      	push	{r7, lr}
 80022d2:	b084      	sub	sp, #16
 80022d4:	af00      	add	r7, sp, #0
 80022d6:	6078      	str	r0, [r7, #4]
  ErrorStatus status = SUCCESS;
 80022d8:	2300      	movs	r3, #0
 80022da:	73fb      	strb	r3, [r7, #15]
  assert_param(IS_LL_EXTI_LINE_0_31(EXTI_InitStruct->Line_0_31));
  assert_param(IS_FUNCTIONAL_STATE(EXTI_InitStruct->LineCommand));
  assert_param(IS_LL_EXTI_MODE(EXTI_InitStruct->Mode));

  /* ENABLE LineCommand */
  if (EXTI_InitStruct->LineCommand != DISABLE)
 80022dc:	687b      	ldr	r3, [r7, #4]
 80022de:	791b      	ldrb	r3, [r3, #4]
 80022e0:	2b00      	cmp	r3, #0
 80022e2:	d065      	beq.n	80023b0 <LL_EXTI_Init+0xe0>
  {
    assert_param(IS_LL_EXTI_TRIGGER(EXTI_InitStruct->Trigger));

    /* Configure EXTI Lines in range from 0 to 31 */
    if (EXTI_InitStruct->Line_0_31 != LL_EXTI_LINE_NONE)
 80022e4:	687b      	ldr	r3, [r7, #4]
 80022e6:	681b      	ldr	r3, [r3, #0]
 80022e8:	2b00      	cmp	r3, #0
 80022ea:	d06b      	beq.n	80023c4 <LL_EXTI_Init+0xf4>
    {
      switch (EXTI_InitStruct->Mode)
 80022ec:	687b      	ldr	r3, [r7, #4]
 80022ee:	795b      	ldrb	r3, [r3, #5]
 80022f0:	2b02      	cmp	r3, #2
 80022f2:	d01c      	beq.n	800232e <LL_EXTI_Init+0x5e>
 80022f4:	2b02      	cmp	r3, #2
 80022f6:	dc25      	bgt.n	8002344 <LL_EXTI_Init+0x74>
 80022f8:	2b00      	cmp	r3, #0
 80022fa:	d002      	beq.n	8002302 <LL_EXTI_Init+0x32>
 80022fc:	2b01      	cmp	r3, #1
 80022fe:	d00b      	beq.n	8002318 <LL_EXTI_Init+0x48>
 8002300:	e020      	b.n	8002344 <LL_EXTI_Init+0x74>
      {
        case LL_EXTI_MODE_IT:
          /* First Disable Event on provided Lines */
          LL_EXTI_DisableEvent_0_31(EXTI_InitStruct->Line_0_31);
 8002302:	687b      	ldr	r3, [r7, #4]
 8002304:	681b      	ldr	r3, [r3, #0]
 8002306:	4618      	mov	r0, r3
 8002308:	f7ff ff82 	bl	8002210 <LL_EXTI_DisableEvent_0_31>
          /* Then Enable IT on provided Lines */
          LL_EXTI_EnableIT_0_31(EXTI_InitStruct->Line_0_31);
 800230c:	687b      	ldr	r3, [r7, #4]
 800230e:	681b      	ldr	r3, [r3, #0]
 8002310:	4618      	mov	r0, r3
 8002312:	f7ff ff45 	bl	80021a0 <LL_EXTI_EnableIT_0_31>
          break;
 8002316:	e018      	b.n	800234a <LL_EXTI_Init+0x7a>
        case LL_EXTI_MODE_EVENT:
          /* First Disable IT on provided Lines */
          LL_EXTI_DisableIT_0_31(EXTI_InitStruct->Line_0_31);
 8002318:	687b      	ldr	r3, [r7, #4]
 800231a:	681b      	ldr	r3, [r3, #0]
 800231c:	4618      	mov	r0, r3
 800231e:	f7ff ff51 	bl	80021c4 <LL_EXTI_DisableIT_0_31>
          /* Then Enable Event on provided Lines */
          LL_EXTI_EnableEvent_0_31(EXTI_InitStruct->Line_0_31);
 8002322:	687b      	ldr	r3, [r7, #4]
 8002324:	681b      	ldr	r3, [r3, #0]
 8002326:	4618      	mov	r0, r3
 8002328:	f7ff ff60 	bl	80021ec <LL_EXTI_EnableEvent_0_31>
          break;
 800232c:	e00d      	b.n	800234a <LL_EXTI_Init+0x7a>
        case LL_EXTI_MODE_IT_EVENT:
          /* Directly Enable IT & Event on provided Lines */
          LL_EXTI_EnableIT_0_31(EXTI_InitStruct->Line_0_31);
 800232e:	687b      	ldr	r3, [r7, #4]
 8002330:	681b      	ldr	r3, [r3, #0]
 8002332:	4618      	mov	r0, r3
 8002334:	f7ff ff34 	bl	80021a0 <LL_EXTI_EnableIT_0_31>
          LL_EXTI_EnableEvent_0_31(EXTI_InitStruct->Line_0_31);
 8002338:	687b      	ldr	r3, [r7, #4]
 800233a:	681b      	ldr	r3, [r3, #0]
 800233c:	4618      	mov	r0, r3
 800233e:	f7ff ff55 	bl	80021ec <LL_EXTI_EnableEvent_0_31>
          break;
 8002342:	e002      	b.n	800234a <LL_EXTI_Init+0x7a>
        default:
          status = ERROR;
 8002344:	2301      	movs	r3, #1
 8002346:	73fb      	strb	r3, [r7, #15]
          break;
 8002348:	bf00      	nop
      }
      if (EXTI_InitStruct->Trigger != LL_EXTI_TRIGGER_NONE)
 800234a:	687b      	ldr	r3, [r7, #4]
 800234c:	799b      	ldrb	r3, [r3, #6]
 800234e:	2b00      	cmp	r3, #0
 8002350:	d038      	beq.n	80023c4 <LL_EXTI_Init+0xf4>
      {
        switch (EXTI_InitStruct->Trigger)
 8002352:	687b      	ldr	r3, [r7, #4]
 8002354:	799b      	ldrb	r3, [r3, #6]
 8002356:	2b03      	cmp	r3, #3
 8002358:	d01c      	beq.n	8002394 <LL_EXTI_Init+0xc4>
 800235a:	2b03      	cmp	r3, #3
 800235c:	dc25      	bgt.n	80023aa <LL_EXTI_Init+0xda>
 800235e:	2b01      	cmp	r3, #1
 8002360:	d002      	beq.n	8002368 <LL_EXTI_Init+0x98>
 8002362:	2b02      	cmp	r3, #2
 8002364:	d00b      	beq.n	800237e <LL_EXTI_Init+0xae>
 8002366:	e020      	b.n	80023aa <LL_EXTI_Init+0xda>
        {
          case LL_EXTI_TRIGGER_RISING:
            /* First Disable Falling Trigger on provided Lines */
            LL_EXTI_DisableFallingTrig_0_31(EXTI_InitStruct->Line_0_31);
 8002368:	687b      	ldr	r3, [r7, #4]
 800236a:	681b      	ldr	r3, [r3, #0]
 800236c:	4618      	mov	r0, r3
 800236e:	f7ff ff9b 	bl	80022a8 <LL_EXTI_DisableFallingTrig_0_31>
            /* Then Enable Rising Trigger on provided Lines */
            LL_EXTI_EnableRisingTrig_0_31(EXTI_InitStruct->Line_0_31);
 8002372:	687b      	ldr	r3, [r7, #4]
 8002374:	681b      	ldr	r3, [r3, #0]
 8002376:	4618      	mov	r0, r3
 8002378:	f7ff ff5e 	bl	8002238 <LL_EXTI_EnableRisingTrig_0_31>
            break;
 800237c:	e022      	b.n	80023c4 <LL_EXTI_Init+0xf4>
          case LL_EXTI_TRIGGER_FALLING:
            /* First Disable Rising Trigger on provided Lines */
            LL_EXTI_DisableRisingTrig_0_31(EXTI_InitStruct->Line_0_31);
 800237e:	687b      	ldr	r3, [r7, #4]
 8002380:	681b      	ldr	r3, [r3, #0]
 8002382:	4618      	mov	r0, r3
 8002384:	f7ff ff6a 	bl	800225c <LL_EXTI_DisableRisingTrig_0_31>
            /* Then Enable Falling Trigger on provided Lines */
            LL_EXTI_EnableFallingTrig_0_31(EXTI_InitStruct->Line_0_31);
 8002388:	687b      	ldr	r3, [r7, #4]
 800238a:	681b      	ldr	r3, [r3, #0]
 800238c:	4618      	mov	r0, r3
 800238e:	f7ff ff79 	bl	8002284 <LL_EXTI_EnableFallingTrig_0_31>
            break;
 8002392:	e017      	b.n	80023c4 <LL_EXTI_Init+0xf4>
          case LL_EXTI_TRIGGER_RISING_FALLING:
            LL_EXTI_EnableRisingTrig_0_31(EXTI_InitStruct->Line_0_31);
 8002394:	687b      	ldr	r3, [r7, #4]
 8002396:	681b      	ldr	r3, [r3, #0]
 8002398:	4618      	mov	r0, r3
 800239a:	f7ff ff4d 	bl	8002238 <LL_EXTI_EnableRisingTrig_0_31>
            LL_EXTI_EnableFallingTrig_0_31(EXTI_InitStruct->Line_0_31);
 800239e:	687b      	ldr	r3, [r7, #4]
 80023a0:	681b      	ldr	r3, [r3, #0]
 80023a2:	4618      	mov	r0, r3
 80023a4:	f7ff ff6e 	bl	8002284 <LL_EXTI_EnableFallingTrig_0_31>
            break;
 80023a8:	e00c      	b.n	80023c4 <LL_EXTI_Init+0xf4>
          default:
            status = ERROR;
 80023aa:	2301      	movs	r3, #1
 80023ac:	73fb      	strb	r3, [r7, #15]
            break;
 80023ae:	e009      	b.n	80023c4 <LL_EXTI_Init+0xf4>
  }
  /* DISABLE LineCommand */
  else
  {
    /* De-configure EXTI Lines in range from 0 to 31 */
    LL_EXTI_DisableIT_0_31(EXTI_InitStruct->Line_0_31);
 80023b0:	687b      	ldr	r3, [r7, #4]
 80023b2:	681b      	ldr	r3, [r3, #0]
 80023b4:	4618      	mov	r0, r3
 80023b6:	f7ff ff05 	bl	80021c4 <LL_EXTI_DisableIT_0_31>
    LL_EXTI_DisableEvent_0_31(EXTI_InitStruct->Line_0_31);
 80023ba:	687b      	ldr	r3, [r7, #4]
 80023bc:	681b      	ldr	r3, [r3, #0]
 80023be:	4618      	mov	r0, r3
 80023c0:	f7ff ff26 	bl	8002210 <LL_EXTI_DisableEvent_0_31>
  }
  return status;
 80023c4:	7bfb      	ldrb	r3, [r7, #15]
}
 80023c6:	4618      	mov	r0, r3
 80023c8:	3710      	adds	r7, #16
 80023ca:	46bd      	mov	sp, r7
 80023cc:	bd80      	pop	{r7, pc}

080023ce <LL_GPIO_SetPinMode>:
{
 80023ce:	b480      	push	{r7}
 80023d0:	b08b      	sub	sp, #44	@ 0x2c
 80023d2:	af00      	add	r7, sp, #0
 80023d4:	60f8      	str	r0, [r7, #12]
 80023d6:	60b9      	str	r1, [r7, #8]
 80023d8:	607a      	str	r2, [r7, #4]
  MODIFY_REG(GPIOx->MODER, (GPIO_MODER_MODER0 << (POSITION_VAL(Pin) * 2U)), (Mode << (POSITION_VAL(Pin) * 2U)));
 80023da:	68fb      	ldr	r3, [r7, #12]
 80023dc:	681a      	ldr	r2, [r3, #0]
 80023de:	68bb      	ldr	r3, [r7, #8]
 80023e0:	617b      	str	r3, [r7, #20]
   __ASM ("rbit %0, %1" : "=r" (result) : "r" (value) );
 80023e2:	697b      	ldr	r3, [r7, #20]
 80023e4:	fa93 f3a3 	rbit	r3, r3
 80023e8:	613b      	str	r3, [r7, #16]
  return result;
 80023ea:	693b      	ldr	r3, [r7, #16]
 80023ec:	61bb      	str	r3, [r7, #24]
  if (value == 0U)
 80023ee:	69bb      	ldr	r3, [r7, #24]
 80023f0:	2b00      	cmp	r3, #0
 80023f2:	d101      	bne.n	80023f8 <LL_GPIO_SetPinMode+0x2a>
    return 32U;
 80023f4:	2320      	movs	r3, #32
 80023f6:	e003      	b.n	8002400 <LL_GPIO_SetPinMode+0x32>
  return __builtin_clz(value);
 80023f8:	69bb      	ldr	r3, [r7, #24]
 80023fa:	fab3 f383 	clz	r3, r3
 80023fe:	b2db      	uxtb	r3, r3
 8002400:	005b      	lsls	r3, r3, #1
 8002402:	2103      	movs	r1, #3
 8002404:	fa01 f303 	lsl.w	r3, r1, r3
 8002408:	43db      	mvns	r3, r3
 800240a:	401a      	ands	r2, r3
 800240c:	68bb      	ldr	r3, [r7, #8]
 800240e:	623b      	str	r3, [r7, #32]
   __ASM ("rbit %0, %1" : "=r" (result) : "r" (value) );
 8002410:	6a3b      	ldr	r3, [r7, #32]
 8002412:	fa93 f3a3 	rbit	r3, r3
 8002416:	61fb      	str	r3, [r7, #28]
  return result;
 8002418:	69fb      	ldr	r3, [r7, #28]
 800241a:	627b      	str	r3, [r7, #36]	@ 0x24
  if (value == 0U)
 800241c:	6a7b      	ldr	r3, [r7, #36]	@ 0x24
 800241e:	2b00      	cmp	r3, #0
 8002420:	d101      	bne.n	8002426 <LL_GPIO_SetPinMode+0x58>
    return 32U;
 8002422:	2320      	movs	r3, #32
 8002424:	e003      	b.n	800242e <LL_GPIO_SetPinMode+0x60>
  return __builtin_clz(value);
 8002426:	6a7b      	ldr	r3, [r7, #36]	@ 0x24
 8002428:	fab3 f383 	clz	r3, r3
 800242c:	b2db      	uxtb	r3, r3
 800242e:	005b      	lsls	r3, r3, #1
 8002430:	6879      	ldr	r1, [r7, #4]
 8002432:	fa01 f303 	lsl.w	r3, r1, r3
 8002436:	431a      	orrs	r2, r3
 8002438:	68fb      	ldr	r3, [r7, #12]
 800243a:	601a      	str	r2, [r3, #0]
}
 800243c:	bf00      	nop
 800243e:	372c      	adds	r7, #44	@ 0x2c
 8002440:	46bd      	mov	sp, r7
 8002442:	f85d 7b04 	ldr.w	r7, [sp], #4
 8002446:	4770      	bx	lr

08002448 <LL_GPIO_SetPinOutputType>:
{
 8002448:	b480      	push	{r7}
 800244a:	b085      	sub	sp, #20
 800244c:	af00      	add	r7, sp, #0
 800244e:	60f8      	str	r0, [r7, #12]
 8002450:	60b9      	str	r1, [r7, #8]
 8002452:	607a      	str	r2, [r7, #4]
  MODIFY_REG(GPIOx->OTYPER, PinMask, (PinMask * OutputType));
 8002454:	68fb      	ldr	r3, [r7, #12]
 8002456:	685a      	ldr	r2, [r3, #4]
 8002458:	68bb      	ldr	r3, [r7, #8]
 800245a:	43db      	mvns	r3, r3
 800245c:	401a      	ands	r2, r3
 800245e:	68bb      	ldr	r3, [r7, #8]
 8002460:	6879      	ldr	r1, [r7, #4]
 8002462:	fb01 f303 	mul.w	r3, r1, r3
 8002466:	431a      	orrs	r2, r3
 8002468:	68fb      	ldr	r3, [r7, #12]
 800246a:	605a      	str	r2, [r3, #4]
}
 800246c:	bf00      	nop
 800246e:	3714      	adds	r7, #20
 8002470:	46bd      	mov	sp, r7
 8002472:	f85d 7b04 	ldr.w	r7, [sp], #4
 8002476:	4770      	bx	lr

08002478 <LL_GPIO_SetPinSpeed>:
{
 8002478:	b480      	push	{r7}
 800247a:	b08b      	sub	sp, #44	@ 0x2c
 800247c:	af00      	add	r7, sp, #0
 800247e:	60f8      	str	r0, [r7, #12]
 8002480:	60b9      	str	r1, [r7, #8]
 8002482:	607a      	str	r2, [r7, #4]
  MODIFY_REG(GPIOx->OSPEEDR, (GPIO_OSPEEDER_OSPEEDR0 << (POSITION_VAL(Pin) * 2U)),
 8002484:	68fb      	ldr	r3, [r7, #12]
 8002486:	689a      	ldr	r2, [r3, #8]
 8002488:	68bb      	ldr	r3, [r7, #8]
 800248a:	617b      	str	r3, [r7, #20]
   __ASM ("rbit %0, %1" : "=r" (result) : "r" (value) );
 800248c:	697b      	ldr	r3, [r7, #20]
 800248e:	fa93 f3a3 	rbit	r3, r3
 8002492:	613b      	str	r3, [r7, #16]
  return result;
 8002494:	693b      	ldr	r3, [r7, #16]
 8002496:	61bb      	str	r3, [r7, #24]
  if (value == 0U)
 8002498:	69bb      	ldr	r3, [r7, #24]
 800249a:	2b00      	cmp	r3, #0
 800249c:	d101      	bne.n	80024a2 <LL_GPIO_SetPinSpeed+0x2a>
    return 32U;
 800249e:	2320      	movs	r3, #32
 80024a0:	e003      	b.n	80024aa <LL_GPIO_SetPinSpeed+0x32>
  return __builtin_clz(value);
 80024a2:	69bb      	ldr	r3, [r7, #24]
 80024a4:	fab3 f383 	clz	r3, r3
 80024a8:	b2db      	uxtb	r3, r3
 80024aa:	005b      	lsls	r3, r3, #1
 80024ac:	2103      	movs	r1, #3
 80024ae:	fa01 f303 	lsl.w	r3, r1, r3
 80024b2:	43db      	mvns	r3, r3
 80024b4:	401a      	ands	r2, r3
 80024b6:	68bb      	ldr	r3, [r7, #8]
 80024b8:	623b      	str	r3, [r7, #32]
   __ASM ("rbit %0, %1" : "=r" (result) : "r" (value) );
 80024ba:	6a3b      	ldr	r3, [r7, #32]
 80024bc:	fa93 f3a3 	rbit	r3, r3
 80024c0:	61fb      	str	r3, [r7, #28]
  return result;
 80024c2:	69fb      	ldr	r3, [r7, #28]
 80024c4:	627b      	str	r3, [r7, #36]	@ 0x24
  if (value == 0U)
 80024c6:	6a7b      	ldr	r3, [r7, #36]	@ 0x24
 80024c8:	2b00      	cmp	r3, #0
 80024ca:	d101      	bne.n	80024d0 <LL_GPIO_SetPinSpeed+0x58>
    return 32U;
 80024cc:	2320      	movs	r3, #32
 80024ce:	e003      	b.n	80024d8 <LL_GPIO_SetPinSpeed+0x60>
  return __builtin_clz(value);
 80024d0:	6a7b      	ldr	r3, [r7, #36]	@ 0x24
 80024d2:	fab3 f383 	clz	r3, r3
 80024d6:	b2db      	uxtb	r3, r3
 80024d8:	005b      	lsls	r3, r3, #1
 80024da:	6879      	ldr	r1, [r7, #4]
 80024dc:	fa01 f303 	lsl.w	r3, r1, r3
 80024e0:	431a      	orrs	r2, r3
 80024e2:	68fb      	ldr	r3, [r7, #12]
 80024e4:	609a      	str	r2, [r3, #8]
}
 80024e6:	bf00      	nop
 80024e8:	372c      	adds	r7, #44	@ 0x2c
 80024ea:	46bd      	mov	sp, r7
 80024ec:	f85d 7b04 	ldr.w	r7, [sp], #4
 80024f0:	4770      	bx	lr

080024f2 <LL_GPIO_SetPinPull>:
{
 80024f2:	b480      	push	{r7}
 80024f4:	b08b      	sub	sp, #44	@ 0x2c
 80024f6:	af00      	add	r7, sp, #0
 80024f8:	60f8      	str	r0, [r7, #12]
 80024fa:	60b9      	str	r1, [r7, #8]
 80024fc:	607a      	str	r2, [r7, #4]
  MODIFY_REG(GPIOx->PUPDR, (GPIO_PUPDR_PUPDR0 << (POSITION_VAL(Pin) * 2U)), (Pull << (POSITION_VAL(Pin) * 2U)));
 80024fe:	68fb      	ldr	r3, [r7, #12]
 8002500:	68da      	ldr	r2, [r3, #12]
 8002502:	68bb      	ldr	r3, [r7, #8]
 8002504:	617b      	str	r3, [r7, #20]
   __ASM ("rbit %0, %1" : "=r" (result) : "r" (value) );
 8002506:	697b      	ldr	r3, [r7, #20]
 8002508:	fa93 f3a3 	rbit	r3, r3
 800250c:	613b      	str	r3, [r7, #16]
  return result;
 800250e:	693b      	ldr	r3, [r7, #16]
 8002510:	61bb      	str	r3, [r7, #24]
  if (value == 0U)
 8002512:	69bb      	ldr	r3, [r7, #24]
 8002514:	2b00      	cmp	r3, #0
 8002516:	d101      	bne.n	800251c <LL_GPIO_SetPinPull+0x2a>
    return 32U;
 8002518:	2320      	movs	r3, #32
 800251a:	e003      	b.n	8002524 <LL_GPIO_SetPinPull+0x32>
  return __builtin_clz(value);
 800251c:	69bb      	ldr	r3, [r7, #24]
 800251e:	fab3 f383 	clz	r3, r3
 8002522:	b2db      	uxtb	r3, r3
 8002524:	005b      	lsls	r3, r3, #1
 8002526:	2103      	movs	r1, #3
 8002528:	fa01 f303 	lsl.w	r3, r1, r3
 800252c:	43db      	mvns	r3, r3
 800252e:	401a      	ands	r2, r3
 8002530:	68bb      	ldr	r3, [r7, #8]
 8002532:	623b      	str	r3, [r7, #32]
   __ASM ("rbit %0, %1" : "=r" (result) : "r" (value) );
 8002534:	6a3b      	ldr	r3, [r7, #32]
 8002536:	fa93 f3a3 	rbit	r3, r3
 800253a:	61fb      	str	r3, [r7, #28]
  return result;
 800253c:	69fb      	ldr	r3, [r7, #28]
 800253e:	627b      	str	r3, [r7, #36]	@ 0x24
  if (value == 0U)
 8002540:	6a7b      	ldr	r3, [r7, #36]	@ 0x24
 8002542:	2b00      	cmp	r3, #0
 8002544:	d101      	bne.n	800254a <LL_GPIO_SetPinPull+0x58>
    return 32U;
 8002546:	2320      	movs	r3, #32
 8002548:	e003      	b.n	8002552 <LL_GPIO_SetPinPull+0x60>
  return __builtin_clz(value);
 800254a:	6a7b      	ldr	r3, [r7, #36]	@ 0x24
 800254c:	fab3 f383 	clz	r3, r3
 8002550:	b2db      	uxtb	r3, r3
 8002552:	005b      	lsls	r3, r3, #1
 8002554:	6879      	ldr	r1, [r7, #4]
 8002556:	fa01 f303 	lsl.w	r3, r1, r3
 800255a:	431a      	orrs	r2, r3
 800255c:	68fb      	ldr	r3, [r7, #12]
 800255e:	60da      	str	r2, [r3, #12]
}
 8002560:	bf00      	nop
 8002562:	372c      	adds	r7, #44	@ 0x2c
 8002564:	46bd      	mov	sp, r7
 8002566:	f85d 7b04 	ldr.w	r7, [sp], #4
 800256a:	4770      	bx	lr

0800256c <LL_GPIO_SetAFPin_0_7>:
{
 800256c:	b480      	push	{r7}
 800256e:	b08b      	sub	sp, #44	@ 0x2c
 8002570:	af00      	add	r7, sp, #0
 8002572:	60f8      	str	r0, [r7, #12]
 8002574:	60b9      	str	r1, [r7, #8]
 8002576:	607a      	str	r2, [r7, #4]
  MODIFY_REG(GPIOx->AFR[0], (GPIO_AFRL_AFSEL0 << (POSITION_VAL(Pin) * 4U)),
 8002578:	68fb      	ldr	r3, [r7, #12]
 800257a:	6a1a      	ldr	r2, [r3, #32]
 800257c:	68bb      	ldr	r3, [r7, #8]
 800257e:	617b      	str	r3, [r7, #20]
   __ASM ("rbit %0, %1" : "=r" (result) : "r" (value) );
 8002580:	697b      	ldr	r3, [r7, #20]
 8002582:	fa93 f3a3 	rbit	r3, r3
 8002586:	613b      	str	r3, [r7, #16]
  return result;
 8002588:	693b      	ldr	r3, [r7, #16]
 800258a:	61bb      	str	r3, [r7, #24]
  if (value == 0U)
 800258c:	69bb      	ldr	r3, [r7, #24]
 800258e:	2b00      	cmp	r3, #0
 8002590:	d101      	bne.n	8002596 <LL_GPIO_SetAFPin_0_7+0x2a>
    return 32U;
 8002592:	2320      	movs	r3, #32
 8002594:	e003      	b.n	800259e <LL_GPIO_SetAFPin_0_7+0x32>
  return __builtin_clz(value);
 8002596:	69bb      	ldr	r3, [r7, #24]
 8002598:	fab3 f383 	clz	r3, r3
 800259c:	b2db      	uxtb	r3, r3
 800259e:	009b      	lsls	r3, r3, #2
 80025a0:	210f      	movs	r1, #15
 80025a2:	fa01 f303 	lsl.w	r3, r1, r3
 80025a6:	43db      	mvns	r3, r3
 80025a8:	401a      	ands	r2, r3
 80025aa:	68bb      	ldr	r3, [r7, #8]
 80025ac:	623b      	str	r3, [r7, #32]
   __ASM ("rbit %0, %1" : "=r" (result) : "r" (value) );
 80025ae:	6a3b      	ldr	r3, [r7, #32]
 80025b0:	fa93 f3a3 	rbit	r3, r3
 80025b4:	61fb      	str	r3, [r7, #28]
  return result;
 80025b6:	69fb      	ldr	r3, [r7, #28]
 80025b8:	627b      	str	r3, [r7, #36]	@ 0x24
  if (value == 0U)
 80025ba:	6a7b      	ldr	r3, [r7, #36]	@ 0x24
 80025bc:	2b00      	cmp	r3, #0
 80025be:	d101      	bne.n	80025c4 <LL_GPIO_SetAFPin_0_7+0x58>
    return 32U;
 80025c0:	2320      	movs	r3, #32
 80025c2:	e003      	b.n	80025cc <LL_GPIO_SetAFPin_0_7+0x60>
  return __builtin_clz(value);
 80025c4:	6a7b      	ldr	r3, [r7, #36]	@ 0x24
 80025c6:	fab3 f383 	clz	r3, r3
 80025ca:	b2db      	uxtb	r3, r3
 80025cc:	009b      	lsls	r3, r3, #2
 80025ce:	6879      	ldr	r1, [r7, #4]
 80025d0:	fa01 f303 	lsl.w	r3, r1, r3
 80025d4:	431a      	orrs	r2, r3
 80025d6:	68fb      	ldr	r3, [r7, #12]
 80025d8:	621a      	str	r2, [r3, #32]
}
 80025da:	bf00      	nop
 80025dc:	372c      	adds	r7, #44	@ 0x2c
 80025de:	46bd      	mov	sp, r7
 80025e0:	f85d 7b04 	ldr.w	r7, [sp], #4
 80025e4:	4770      	bx	lr

080025e6 <LL_GPIO_SetAFPin_8_15>:
{
 80025e6:	b480      	push	{r7}
 80025e8:	b08b      	sub	sp, #44	@ 0x2c
 80025ea:	af00      	add	r7, sp, #0
 80025ec:	60f8      	str	r0, [r7, #12]
 80025ee:	60b9      	str	r1, [r7, #8]
 80025f0:	607a      	str	r2, [r7, #4]
  MODIFY_REG(GPIOx->AFR[1], (GPIO_AFRH_AFSEL8 << (POSITION_VAL(Pin >> 8U) * 4U)),
 80025f2:	68fb      	ldr	r3, [r7, #12]
 80025f4:	6a5a      	ldr	r2, [r3, #36]	@ 0x24
 80025f6:	68bb      	ldr	r3, [r7, #8]
 80025f8:	0a1b      	lsrs	r3, r3, #8
 80025fa:	617b      	str	r3, [r7, #20]
   __ASM ("rbit %0, %1" : "=r" (result) : "r" (value) );
 80025fc:	697b      	ldr	r3, [r7, #20]
 80025fe:	fa93 f3a3 	rbit	r3, r3
 8002602:	613b      	str	r3, [r7, #16]
  return result;
 8002604:	693b      	ldr	r3, [r7, #16]
 8002606:	61bb      	str	r3, [r7, #24]
  if (value == 0U)
 8002608:	69bb      	ldr	r3, [r7, #24]
 800260a:	2b00      	cmp	r3, #0
 800260c:	d101      	bne.n	8002612 <LL_GPIO_SetAFPin_8_15+0x2c>
    return 32U;
 800260e:	2320      	movs	r3, #32
 8002610:	e003      	b.n	800261a <LL_GPIO_SetAFPin_8_15+0x34>
  return __builtin_clz(value);
 8002612:	69bb      	ldr	r3, [r7, #24]
 8002614:	fab3 f383 	clz	r3, r3
 8002618:	b2db      	uxtb	r3, r3
 800261a:	009b      	lsls	r3, r3, #2
 800261c:	210f      	movs	r1, #15
 800261e:	fa01 f303 	lsl.w	r3, r1, r3
 8002622:	43db      	mvns	r3, r3
 8002624:	401a      	ands	r2, r3
 8002626:	68bb      	ldr	r3, [r7, #8]
 8002628:	0a1b      	lsrs	r3, r3, #8
 800262a:	623b      	str	r3, [r7, #32]
   __ASM ("rbit %0, %1" : "=r" (result) : "r" (value) );
 800262c:	6a3b      	ldr	r3, [r7, #32]
 800262e:	fa93 f3a3 	rbit	r3, r3
 8002632:	61fb      	str	r3, [r7, #28]
  return result;
 8002634:	69fb      	ldr	r3, [r7, #28]
 8002636:	627b      	str	r3, [r7, #36]	@ 0x24
  if (value == 0U)
 8002638:	6a7b      	ldr	r3, [r7, #36]	@ 0x24
 800263a:	2b00      	cmp	r3, #0
 800263c:	d101      	bne.n	8002642 <LL_GPIO_SetAFPin_8_15+0x5c>
    return 32U;
 800263e:	2320      	movs	r3, #32
 8002640:	e003      	b.n	800264a <LL_GPIO_SetAFPin_8_15+0x64>
  return __builtin_clz(value);
 8002642:	6a7b      	ldr	r3, [r7, #36]	@ 0x24
 8002644:	fab3 f383 	clz	r3, r3
 8002648:	b2db      	uxtb	r3, r3
 800264a:	009b      	lsls	r3, r3, #2
 800264c:	6879      	ldr	r1, [r7, #4]
 800264e:	fa01 f303 	lsl.w	r3, r1, r3
 8002652:	431a      	orrs	r2, r3
 8002654:	68fb      	ldr	r3, [r7, #12]
 8002656:	625a      	str	r2, [r3, #36]	@ 0x24
}
 8002658:	bf00      	nop
 800265a:	372c      	adds	r7, #44	@ 0x2c
 800265c:	46bd      	mov	sp, r7
 800265e:	f85d 7b04 	ldr.w	r7, [sp], #4
 8002662:	4770      	bx	lr

08002664 <LL_GPIO_Init>:
  * @retval An ErrorStatus enumeration value:
  *          - SUCCESS: GPIO registers are initialized according to GPIO_InitStruct content
  *          - ERROR:   Not applicable
  */
ErrorStatus LL_GPIO_Init(GPIO_TypeDef *GPIOx, LL_GPIO_InitTypeDef *GPIO_InitStruct)
{
 8002664:	b580      	push	{r7, lr}
 8002666:	b08a      	sub	sp, #40	@ 0x28
 8002668:	af00      	add	r7, sp, #0
 800266a:	6078      	str	r0, [r7, #4]
 800266c:	6039      	str	r1, [r7, #0]
  uint32_t pinpos     = 0x00000000U;
 800266e:	2300      	movs	r3, #0
 8002670:	627b      	str	r3, [r7, #36]	@ 0x24
  uint32_t currentpin = 0x00000000U;
 8002672:	2300      	movs	r3, #0
 8002674:	623b      	str	r3, [r7, #32]
  assert_param(IS_LL_GPIO_MODE(GPIO_InitStruct->Mode));
  assert_param(IS_LL_GPIO_PULL(GPIO_InitStruct->Pull));

  /* ------------------------- Configure the port pins ---------------- */
  /* Initialize  pinpos on first pin set */
  pinpos = POSITION_VAL(GPIO_InitStruct->Pin);
 8002676:	683b      	ldr	r3, [r7, #0]
 8002678:	681b      	ldr	r3, [r3, #0]
 800267a:	61bb      	str	r3, [r7, #24]
   __ASM ("rbit %0, %1" : "=r" (result) : "r" (value) );
 800267c:	69bb      	ldr	r3, [r7, #24]
 800267e:	fa93 f3a3 	rbit	r3, r3
 8002682:	617b      	str	r3, [r7, #20]
  return result;
 8002684:	697b      	ldr	r3, [r7, #20]
 8002686:	61fb      	str	r3, [r7, #28]
  if (value == 0U)
 8002688:	69fb      	ldr	r3, [r7, #28]
 800268a:	2b00      	cmp	r3, #0
 800268c:	d101      	bne.n	8002692 <LL_GPIO_Init+0x2e>
    return 32U;
 800268e:	2320      	movs	r3, #32
 8002690:	e003      	b.n	800269a <LL_GPIO_Init+0x36>
  return __builtin_clz(value);
 8002692:	69fb      	ldr	r3, [r7, #28]
 8002694:	fab3 f383 	clz	r3, r3
 8002698:	b2db      	uxtb	r3, r3
 800269a:	627b      	str	r3, [r7, #36]	@ 0x24
  
  /* Configure the port pins */
  while (((GPIO_InitStruct->Pin) >> pinpos) != 0x00000000U)
 800269c:	e057      	b.n	800274e <LL_GPIO_Init+0xea>
  {
    /* Get current io position */
    currentpin = (GPIO_InitStruct->Pin) & (0x00000001U << pinpos);
 800269e:	683b      	ldr	r3, [r7, #0]
 80026a0:	681a      	ldr	r2, [r3, #0]
 80026a2:	2101      	movs	r1, #1
 80026a4:	6a7b      	ldr	r3, [r7, #36]	@ 0x24
 80026a6:	fa01 f303 	lsl.w	r3, r1, r3
 80026aa:	4013      	ands	r3, r2
 80026ac:	623b      	str	r3, [r7, #32]
    
    if (currentpin)
 80026ae:	6a3b      	ldr	r3, [r7, #32]
 80026b0:	2b00      	cmp	r3, #0
 80026b2:	d049      	beq.n	8002748 <LL_GPIO_Init+0xe4>
    {
      
      if ((GPIO_InitStruct->Mode == LL_GPIO_MODE_OUTPUT) || (GPIO_InitStruct->Mode == LL_GPIO_MODE_ALTERNATE))
 80026b4:	683b      	ldr	r3, [r7, #0]
 80026b6:	685b      	ldr	r3, [r3, #4]
 80026b8:	2b01      	cmp	r3, #1
 80026ba:	d003      	beq.n	80026c4 <LL_GPIO_Init+0x60>
 80026bc:	683b      	ldr	r3, [r7, #0]
 80026be:	685b      	ldr	r3, [r3, #4]
 80026c0:	2b02      	cmp	r3, #2
 80026c2:	d10d      	bne.n	80026e0 <LL_GPIO_Init+0x7c>
      {
        /* Check Speed mode parameters */
        assert_param(IS_LL_GPIO_SPEED(GPIO_InitStruct->Speed));
        
        /* Speed mode configuration */
        LL_GPIO_SetPinSpeed(GPIOx, currentpin, GPIO_InitStruct->Speed);
 80026c4:	683b      	ldr	r3, [r7, #0]
 80026c6:	689b      	ldr	r3, [r3, #8]
 80026c8:	461a      	mov	r2, r3
 80026ca:	6a39      	ldr	r1, [r7, #32]
 80026cc:	6878      	ldr	r0, [r7, #4]
 80026ce:	f7ff fed3 	bl	8002478 <LL_GPIO_SetPinSpeed>
        
        /* Check Output mode parameters */
        assert_param(IS_LL_GPIO_OUTPUT_TYPE(GPIO_InitStruct->OutputType));
        
        /* Output mode configuration*/
        LL_GPIO_SetPinOutputType(GPIOx, currentpin, GPIO_InitStruct->OutputType);
 80026d2:	683b      	ldr	r3, [r7, #0]
 80026d4:	68db      	ldr	r3, [r3, #12]
 80026d6:	461a      	mov	r2, r3
 80026d8:	6a39      	ldr	r1, [r7, #32]
 80026da:	6878      	ldr	r0, [r7, #4]
 80026dc:	f7ff feb4 	bl	8002448 <LL_GPIO_SetPinOutputType>
      }
      
      /* Pull-up Pull down resistor configuration*/
      LL_GPIO_SetPinPull(GPIOx, currentpin, GPIO_InitStruct->Pull);
 80026e0:	683b      	ldr	r3, [r7, #0]
 80026e2:	691b      	ldr	r3, [r3, #16]
 80026e4:	461a      	mov	r2, r3
 80026e6:	6a39      	ldr	r1, [r7, #32]
 80026e8:	6878      	ldr	r0, [r7, #4]
 80026ea:	f7ff ff02 	bl	80024f2 <LL_GPIO_SetPinPull>
      
      if (GPIO_InitStruct->Mode == LL_GPIO_MODE_ALTERNATE)
 80026ee:	683b      	ldr	r3, [r7, #0]
 80026f0:	685b      	ldr	r3, [r3, #4]
 80026f2:	2b02      	cmp	r3, #2
 80026f4:	d121      	bne.n	800273a <LL_GPIO_Init+0xd6>
 80026f6:	6a3b      	ldr	r3, [r7, #32]
 80026f8:	60fb      	str	r3, [r7, #12]
   __ASM ("rbit %0, %1" : "=r" (result) : "r" (value) );
 80026fa:	68fb      	ldr	r3, [r7, #12]
 80026fc:	fa93 f3a3 	rbit	r3, r3
 8002700:	60bb      	str	r3, [r7, #8]
  return result;
 8002702:	68bb      	ldr	r3, [r7, #8]
 8002704:	613b      	str	r3, [r7, #16]
  if (value == 0U)
 8002706:	693b      	ldr	r3, [r7, #16]
 8002708:	2b00      	cmp	r3, #0
 800270a:	d101      	bne.n	8002710 <LL_GPIO_Init+0xac>
    return 32U;
 800270c:	2320      	movs	r3, #32
 800270e:	e003      	b.n	8002718 <LL_GPIO_Init+0xb4>
  return __builtin_clz(value);
 8002710:	693b      	ldr	r3, [r7, #16]
 8002712:	fab3 f383 	clz	r3, r3
 8002716:	b2db      	uxtb	r3, r3
      {
        /* Check Alternate parameter */
        assert_param(IS_LL_GPIO_ALTERNATE(GPIO_InitStruct->Alternate));
        
        /* Speed mode configuration */
        if (POSITION_VAL(currentpin) < 0x00000008U)
 8002718:	2b07      	cmp	r3, #7
 800271a:	d807      	bhi.n	800272c <LL_GPIO_Init+0xc8>
        {
          LL_GPIO_SetAFPin_0_7(GPIOx, currentpin, GPIO_InitStruct->Alternate);
 800271c:	683b      	ldr	r3, [r7, #0]
 800271e:	695b      	ldr	r3, [r3, #20]
 8002720:	461a      	mov	r2, r3
 8002722:	6a39      	ldr	r1, [r7, #32]
 8002724:	6878      	ldr	r0, [r7, #4]
 8002726:	f7ff ff21 	bl	800256c <LL_GPIO_SetAFPin_0_7>
 800272a:	e006      	b.n	800273a <LL_GPIO_Init+0xd6>
        }
        else
        {
          LL_GPIO_SetAFPin_8_15(GPIOx, currentpin, GPIO_InitStruct->Alternate);
 800272c:	683b      	ldr	r3, [r7, #0]
 800272e:	695b      	ldr	r3, [r3, #20]
 8002730:	461a      	mov	r2, r3
 8002732:	6a39      	ldr	r1, [r7, #32]
 8002734:	6878      	ldr	r0, [r7, #4]
 8002736:	f7ff ff56 	bl	80025e6 <LL_GPIO_SetAFPin_8_15>
        }
      }
      
      /* Pin Mode configuration */
      LL_GPIO_SetPinMode(GPIOx, currentpin, GPIO_InitStruct->Mode);
 800273a:	683b      	ldr	r3, [r7, #0]
 800273c:	685b      	ldr	r3, [r3, #4]
 800273e:	461a      	mov	r2, r3
 8002740:	6a39      	ldr	r1, [r7, #32]
 8002742:	6878      	ldr	r0, [r7, #4]
 8002744:	f7ff fe43 	bl	80023ce <LL_GPIO_SetPinMode>
    }
    pinpos++;
 8002748:	6a7b      	ldr	r3, [r7, #36]	@ 0x24
 800274a:	3301      	adds	r3, #1
 800274c:	627b      	str	r3, [r7, #36]	@ 0x24
  while (((GPIO_InitStruct->Pin) >> pinpos) != 0x00000000U)
 800274e:	683b      	ldr	r3, [r7, #0]
 8002750:	681a      	ldr	r2, [r3, #0]
 8002752:	6a7b      	ldr	r3, [r7, #36]	@ 0x24
 8002754:	fa22 f303 	lsr.w	r3, r2, r3
 8002758:	2b00      	cmp	r3, #0
 800275a:	d1a0      	bne.n	800269e <LL_GPIO_Init+0x3a>
  }

  return (SUCCESS);
 800275c:	2300      	movs	r3, #0
}
 800275e:	4618      	mov	r0, r3
 8002760:	3728      	adds	r7, #40	@ 0x28
 8002762:	46bd      	mov	sp, r7
 8002764:	bd80      	pop	{r7, pc}

08002766 <LL_TIM_SetPrescaler>:
{
 8002766:	b480      	push	{r7}
 8002768:	b083      	sub	sp, #12
 800276a:	af00      	add	r7, sp, #0
 800276c:	6078      	str	r0, [r7, #4]
 800276e:	6039      	str	r1, [r7, #0]
  WRITE_REG(TIMx->PSC, Prescaler);
 8002770:	687b      	ldr	r3, [r7, #4]
 8002772:	683a      	ldr	r2, [r7, #0]
 8002774:	629a      	str	r2, [r3, #40]	@ 0x28
}
 8002776:	bf00      	nop
 8002778:	370c      	adds	r7, #12
 800277a:	46bd      	mov	sp, r7
 800277c:	f85d 7b04 	ldr.w	r7, [sp], #4
 8002780:	4770      	bx	lr

08002782 <LL_TIM_SetAutoReload>:
{
 8002782:	b480      	push	{r7}
 8002784:	b083      	sub	sp, #12
 8002786:	af00      	add	r7, sp, #0
 8002788:	6078      	str	r0, [r7, #4]
 800278a:	6039      	str	r1, [r7, #0]
  WRITE_REG(TIMx->ARR, AutoReload);
 800278c:	687b      	ldr	r3, [r7, #4]
 800278e:	683a      	ldr	r2, [r7, #0]
 8002790:	62da      	str	r2, [r3, #44]	@ 0x2c
}
 8002792:	bf00      	nop
 8002794:	370c      	adds	r7, #12
 8002796:	46bd      	mov	sp, r7
 8002798:	f85d 7b04 	ldr.w	r7, [sp], #4
 800279c:	4770      	bx	lr

0800279e <LL_TIM_SetRepetitionCounter>:
{
 800279e:	b480      	push	{r7}
 80027a0:	b083      	sub	sp, #12
 80027a2:	af00      	add	r7, sp, #0
 80027a4:	6078      	str	r0, [r7, #4]
 80027a6:	6039      	str	r1, [r7, #0]
  WRITE_REG(TIMx->RCR, RepetitionCounter);
 80027a8:	687b      	ldr	r3, [r7, #4]
 80027aa:	683a      	ldr	r2, [r7, #0]
 80027ac:	631a      	str	r2, [r3, #48]	@ 0x30
}
 80027ae:	bf00      	nop
 80027b0:	370c      	adds	r7, #12
 80027b2:	46bd      	mov	sp, r7
 80027b4:	f85d 7b04 	ldr.w	r7, [sp], #4
 80027b8:	4770      	bx	lr

080027ba <LL_TIM_OC_SetCompareCH1>:
{
 80027ba:	b480      	push	{r7}
 80027bc:	b083      	sub	sp, #12
 80027be:	af00      	add	r7, sp, #0
 80027c0:	6078      	str	r0, [r7, #4]
 80027c2:	6039      	str	r1, [r7, #0]
  WRITE_REG(TIMx->CCR1, CompareValue);
 80027c4:	687b      	ldr	r3, [r7, #4]
 80027c6:	683a      	ldr	r2, [r7, #0]
 80027c8:	635a      	str	r2, [r3, #52]	@ 0x34
}
 80027ca:	bf00      	nop
 80027cc:	370c      	adds	r7, #12
 80027ce:	46bd      	mov	sp, r7
 80027d0:	f85d 7b04 	ldr.w	r7, [sp], #4
 80027d4:	4770      	bx	lr

080027d6 <LL_TIM_OC_SetCompareCH2>:
{
 80027d6:	b480      	push	{r7}
 80027d8:	b083      	sub	sp, #12
 80027da:	af00      	add	r7, sp, #0
 80027dc:	6078      	str	r0, [r7, #4]
 80027de:	6039      	str	r1, [r7, #0]
  WRITE_REG(TIMx->CCR2, CompareValue);
 80027e0:	687b      	ldr	r3, [r7, #4]
 80027e2:	683a      	ldr	r2, [r7, #0]
 80027e4:	639a      	str	r2, [r3, #56]	@ 0x38
}
 80027e6:	bf00      	nop
 80027e8:	370c      	adds	r7, #12
 80027ea:	46bd      	mov	sp, r7
 80027ec:	f85d 7b04 	ldr.w	r7, [sp], #4
 80027f0:	4770      	bx	lr

080027f2 <LL_TIM_OC_SetCompareCH3>:
{
 80027f2:	b480      	push	{r7}
 80027f4:	b083      	sub	sp, #12
 80027f6:	af00      	add	r7, sp, #0
 80027f8:	6078      	str	r0, [r7, #4]
 80027fa:	6039      	str	r1, [r7, #0]
  WRITE_REG(TIMx->CCR3, CompareValue);
 80027fc:	687b      	ldr	r3, [r7, #4]
 80027fe:	683a      	ldr	r2, [r7, #0]
 8002800:	63da      	str	r2, [r3, #60]	@ 0x3c
}
 8002802:	bf00      	nop
 8002804:	370c      	adds	r7, #12
 8002806:	46bd      	mov	sp, r7
 8002808:	f85d 7b04 	ldr.w	r7, [sp], #4
 800280c:	4770      	bx	lr

0800280e <LL_TIM_OC_SetCompareCH4>:
{
 800280e:	b480      	push	{r7}
 8002810:	b083      	sub	sp, #12
 8002812:	af00      	add	r7, sp, #0
 8002814:	6078      	str	r0, [r7, #4]
 8002816:	6039      	str	r1, [r7, #0]
  WRITE_REG(TIMx->CCR4, CompareValue);
 8002818:	687b      	ldr	r3, [r7, #4]
 800281a:	683a      	ldr	r2, [r7, #0]
 800281c:	641a      	str	r2, [r3, #64]	@ 0x40
}
 800281e:	bf00      	nop
 8002820:	370c      	adds	r7, #12
 8002822:	46bd      	mov	sp, r7
 8002824:	f85d 7b04 	ldr.w	r7, [sp], #4
 8002828:	4770      	bx	lr

0800282a <LL_TIM_GenerateEvent_UPDATE>:
{
 800282a:	b480      	push	{r7}
 800282c:	b083      	sub	sp, #12
 800282e:	af00      	add	r7, sp, #0
 8002830:	6078      	str	r0, [r7, #4]
  SET_BIT(TIMx->EGR, TIM_EGR_UG);
 8002832:	687b      	ldr	r3, [r7, #4]
 8002834:	695b      	ldr	r3, [r3, #20]
 8002836:	f043 0201 	orr.w	r2, r3, #1
 800283a:	687b      	ldr	r3, [r7, #4]
 800283c:	615a      	str	r2, [r3, #20]
}
 800283e:	bf00      	nop
 8002840:	370c      	adds	r7, #12
 8002842:	46bd      	mov	sp, r7
 8002844:	f85d 7b04 	ldr.w	r7, [sp], #4
 8002848:	4770      	bx	lr
	...

0800284c <LL_TIM_Init>:
  * @retval An ErrorStatus enumeration value:
  *          - SUCCESS: TIMx registers are de-initialized
  *          - ERROR: not applicable
  */
ErrorStatus LL_TIM_Init(TIM_TypeDef *TIMx, const LL_TIM_InitTypeDef *TIM_InitStruct)
{
 800284c:	b580      	push	{r7, lr}
 800284e:	b084      	sub	sp, #16
 8002850:	af00      	add	r7, sp, #0
 8002852:	6078      	str	r0, [r7, #4]
 8002854:	6039      	str	r1, [r7, #0]
  /* Check the parameters */
  assert_param(IS_TIM_INSTANCE(TIMx));
  assert_param(IS_LL_TIM_COUNTERMODE(TIM_InitStruct->CounterMode));
  assert_param(IS_LL_TIM_CLOCKDIVISION(TIM_InitStruct->ClockDivision));

  tmpcr1 = LL_TIM_ReadReg(TIMx, CR1);
 8002856:	687b      	ldr	r3, [r7, #4]
 8002858:	681b      	ldr	r3, [r3, #0]
 800285a:	60fb      	str	r3, [r7, #12]

  if (IS_TIM_COUNTER_MODE_SELECT_INSTANCE(TIMx))
 800285c:	687b      	ldr	r3, [r7, #4]
 800285e:	4a3d      	ldr	r2, [pc, #244]	@ (8002954 <LL_TIM_Init+0x108>)
 8002860:	4293      	cmp	r3, r2
 8002862:	d013      	beq.n	800288c <LL_TIM_Init+0x40>
 8002864:	687b      	ldr	r3, [r7, #4]
 8002866:	f1b3 4f80 	cmp.w	r3, #1073741824	@ 0x40000000
 800286a:	d00f      	beq.n	800288c <LL_TIM_Init+0x40>
 800286c:	687b      	ldr	r3, [r7, #4]
 800286e:	4a3a      	ldr	r2, [pc, #232]	@ (8002958 <LL_TIM_Init+0x10c>)
 8002870:	4293      	cmp	r3, r2
 8002872:	d00b      	beq.n	800288c <LL_TIM_Init+0x40>
 8002874:	687b      	ldr	r3, [r7, #4]
 8002876:	4a39      	ldr	r2, [pc, #228]	@ (800295c <LL_TIM_Init+0x110>)
 8002878:	4293      	cmp	r3, r2
 800287a:	d007      	beq.n	800288c <LL_TIM_Init+0x40>
 800287c:	687b      	ldr	r3, [r7, #4]
 800287e:	4a38      	ldr	r2, [pc, #224]	@ (8002960 <LL_TIM_Init+0x114>)
 8002880:	4293      	cmp	r3, r2
 8002882:	d003      	beq.n	800288c <LL_TIM_Init+0x40>
 8002884:	687b      	ldr	r3, [r7, #4]
 8002886:	4a37      	ldr	r2, [pc, #220]	@ (8002964 <LL_TIM_Init+0x118>)
 8002888:	4293      	cmp	r3, r2
 800288a:	d106      	bne.n	800289a <LL_TIM_Init+0x4e>
  {
    /* Select the Counter Mode */
    MODIFY_REG(tmpcr1, (TIM_CR1_DIR | TIM_CR1_CMS), TIM_InitStruct->CounterMode);
 800288c:	68fb      	ldr	r3, [r7, #12]
 800288e:	f023 0270 	bic.w	r2, r3, #112	@ 0x70
 8002892:	683b      	ldr	r3, [r7, #0]
 8002894:	685b      	ldr	r3, [r3, #4]
 8002896:	4313      	orrs	r3, r2
 8002898:	60fb      	str	r3, [r7, #12]
  }

  if (IS_TIM_CLOCK_DIVISION_INSTANCE(TIMx))
 800289a:	687b      	ldr	r3, [r7, #4]
 800289c:	4a2d      	ldr	r2, [pc, #180]	@ (8002954 <LL_TIM_Init+0x108>)
 800289e:	4293      	cmp	r3, r2
 80028a0:	d02b      	beq.n	80028fa <LL_TIM_Init+0xae>
 80028a2:	687b      	ldr	r3, [r7, #4]
 80028a4:	f1b3 4f80 	cmp.w	r3, #1073741824	@ 0x40000000
 80028a8:	d027      	beq.n	80028fa <LL_TIM_Init+0xae>
 80028aa:	687b      	ldr	r3, [r7, #4]
 80028ac:	4a2a      	ldr	r2, [pc, #168]	@ (8002958 <LL_TIM_Init+0x10c>)
 80028ae:	4293      	cmp	r3, r2
 80028b0:	d023      	beq.n	80028fa <LL_TIM_Init+0xae>
 80028b2:	687b      	ldr	r3, [r7, #4]
 80028b4:	4a29      	ldr	r2, [pc, #164]	@ (800295c <LL_TIM_Init+0x110>)
 80028b6:	4293      	cmp	r3, r2
 80028b8:	d01f      	beq.n	80028fa <LL_TIM_Init+0xae>
 80028ba:	687b      	ldr	r3, [r7, #4]
 80028bc:	4a28      	ldr	r2, [pc, #160]	@ (8002960 <LL_TIM_Init+0x114>)
 80028be:	4293      	cmp	r3, r2
 80028c0:	d01b      	beq.n	80028fa <LL_TIM_Init+0xae>
 80028c2:	687b      	ldr	r3, [r7, #4]
 80028c4:	4a27      	ldr	r2, [pc, #156]	@ (8002964 <LL_TIM_Init+0x118>)
 80028c6:	4293      	cmp	r3, r2
 80028c8:	d017      	beq.n	80028fa <LL_TIM_Init+0xae>
 80028ca:	687b      	ldr	r3, [r7, #4]
 80028cc:	4a26      	ldr	r2, [pc, #152]	@ (8002968 <LL_TIM_Init+0x11c>)
 80028ce:	4293      	cmp	r3, r2
 80028d0:	d013      	beq.n	80028fa <LL_TIM_Init+0xae>
 80028d2:	687b      	ldr	r3, [r7, #4]
 80028d4:	4a25      	ldr	r2, [pc, #148]	@ (800296c <LL_TIM_Init+0x120>)
 80028d6:	4293      	cmp	r3, r2
 80028d8:	d00f      	beq.n	80028fa <LL_TIM_Init+0xae>
 80028da:	687b      	ldr	r3, [r7, #4]
 80028dc:	4a24      	ldr	r2, [pc, #144]	@ (8002970 <LL_TIM_Init+0x124>)
 80028de:	4293      	cmp	r3, r2
 80028e0:	d00b      	beq.n	80028fa <LL_TIM_Init+0xae>
 80028e2:	687b      	ldr	r3, [r7, #4]
 80028e4:	4a23      	ldr	r2, [pc, #140]	@ (8002974 <LL_TIM_Init+0x128>)
 80028e6:	4293      	cmp	r3, r2
 80028e8:	d007      	beq.n	80028fa <LL_TIM_Init+0xae>
 80028ea:	687b      	ldr	r3, [r7, #4]
 80028ec:	4a22      	ldr	r2, [pc, #136]	@ (8002978 <LL_TIM_Init+0x12c>)
 80028ee:	4293      	cmp	r3, r2
 80028f0:	d003      	beq.n	80028fa <LL_TIM_Init+0xae>
 80028f2:	687b      	ldr	r3, [r7, #4]
 80028f4:	4a21      	ldr	r2, [pc, #132]	@ (800297c <LL_TIM_Init+0x130>)
 80028f6:	4293      	cmp	r3, r2
 80028f8:	d106      	bne.n	8002908 <LL_TIM_Init+0xbc>
  {
    /* Set the clock division */
    MODIFY_REG(tmpcr1, TIM_CR1_CKD, TIM_InitStruct->ClockDivision);
 80028fa:	68fb      	ldr	r3, [r7, #12]
 80028fc:	f423 7240 	bic.w	r2, r3, #768	@ 0x300
 8002900:	683b      	ldr	r3, [r7, #0]
 8002902:	68db      	ldr	r3, [r3, #12]
 8002904:	4313      	orrs	r3, r2
 8002906:	60fb      	str	r3, [r7, #12]
  }

  /* Write to TIMx CR1 */
  LL_TIM_WriteReg(TIMx, CR1, tmpcr1);
 8002908:	687b      	ldr	r3, [r7, #4]
 800290a:	68fa      	ldr	r2, [r7, #12]
 800290c:	601a      	str	r2, [r3, #0]

  /* Set the Autoreload value */
  LL_TIM_SetAutoReload(TIMx, TIM_InitStruct->Autoreload);
 800290e:	683b      	ldr	r3, [r7, #0]
 8002910:	689b      	ldr	r3, [r3, #8]
 8002912:	4619      	mov	r1, r3
 8002914:	6878      	ldr	r0, [r7, #4]
 8002916:	f7ff ff34 	bl	8002782 <LL_TIM_SetAutoReload>

  /* Set the Prescaler value */
  LL_TIM_SetPrescaler(TIMx, TIM_InitStruct->Prescaler);
 800291a:	683b      	ldr	r3, [r7, #0]
 800291c:	881b      	ldrh	r3, [r3, #0]
 800291e:	4619      	mov	r1, r3
 8002920:	6878      	ldr	r0, [r7, #4]
 8002922:	f7ff ff20 	bl	8002766 <LL_TIM_SetPrescaler>

  if (IS_TIM_REPETITION_COUNTER_INSTANCE(TIMx))
 8002926:	687b      	ldr	r3, [r7, #4]
 8002928:	4a0a      	ldr	r2, [pc, #40]	@ (8002954 <LL_TIM_Init+0x108>)
 800292a:	4293      	cmp	r3, r2
 800292c:	d003      	beq.n	8002936 <LL_TIM_Init+0xea>
 800292e:	687b      	ldr	r3, [r7, #4]
 8002930:	4a0c      	ldr	r2, [pc, #48]	@ (8002964 <LL_TIM_Init+0x118>)
 8002932:	4293      	cmp	r3, r2
 8002934:	d105      	bne.n	8002942 <LL_TIM_Init+0xf6>
  {
    /* Set the Repetition Counter value */
    LL_TIM_SetRepetitionCounter(TIMx, TIM_InitStruct->RepetitionCounter);
 8002936:	683b      	ldr	r3, [r7, #0]
 8002938:	691b      	ldr	r3, [r3, #16]
 800293a:	4619      	mov	r1, r3
 800293c:	6878      	ldr	r0, [r7, #4]
 800293e:	f7ff ff2e 	bl	800279e <LL_TIM_SetRepetitionCounter>
  }

  /* Generate an update event to reload the Prescaler
     and the repetition counter value (if applicable) immediately */
  LL_TIM_GenerateEvent_UPDATE(TIMx);
 8002942:	6878      	ldr	r0, [r7, #4]
 8002944:	f7ff ff71 	bl	800282a <LL_TIM_GenerateEvent_UPDATE>

  return SUCCESS;
 8002948:	2300      	movs	r3, #0
}
 800294a:	4618      	mov	r0, r3
 800294c:	3710      	adds	r7, #16
 800294e:	46bd      	mov	sp, r7
 8002950:	bd80      	pop	{r7, pc}
 8002952:	bf00      	nop
 8002954:	40010000 	.word	0x40010000
 8002958:	40000400 	.word	0x40000400
 800295c:	40000800 	.word	0x40000800
 8002960:	40000c00 	.word	0x40000c00
 8002964:	40010400 	.word	0x40010400
 8002968:	40014000 	.word	0x40014000
 800296c:	40014400 	.word	0x40014400
 8002970:	40014800 	.word	0x40014800
 8002974:	40001800 	.word	0x40001800
 8002978:	40001c00 	.word	0x40001c00
 800297c:	40002000 	.word	0x40002000

08002980 <LL_TIM_OC_Init>:
  * @retval An ErrorStatus enumeration value:
  *          - SUCCESS: TIMx output channel is initialized
  *          - ERROR: TIMx output channel is not initialized
  */
ErrorStatus LL_TIM_OC_Init(TIM_TypeDef *TIMx, uint32_t Channel, const LL_TIM_OC_InitTypeDef *TIM_OC_InitStruct)
{
 8002980:	b580      	push	{r7, lr}
 8002982:	b086      	sub	sp, #24
 8002984:	af00      	add	r7, sp, #0
 8002986:	60f8      	str	r0, [r7, #12]
 8002988:	60b9      	str	r1, [r7, #8]
 800298a:	607a      	str	r2, [r7, #4]
  ErrorStatus result = ERROR;
 800298c:	2301      	movs	r3, #1
 800298e:	75fb      	strb	r3, [r7, #23]

  switch (Channel)
 8002990:	68bb      	ldr	r3, [r7, #8]
 8002992:	f5b3 5f80 	cmp.w	r3, #4096	@ 0x1000
 8002996:	d027      	beq.n	80029e8 <LL_TIM_OC_Init+0x68>
 8002998:	68bb      	ldr	r3, [r7, #8]
 800299a:	f5b3 5f80 	cmp.w	r3, #4096	@ 0x1000
 800299e:	d82a      	bhi.n	80029f6 <LL_TIM_OC_Init+0x76>
 80029a0:	68bb      	ldr	r3, [r7, #8]
 80029a2:	f5b3 7f80 	cmp.w	r3, #256	@ 0x100
 80029a6:	d018      	beq.n	80029da <LL_TIM_OC_Init+0x5a>
 80029a8:	68bb      	ldr	r3, [r7, #8]
 80029aa:	f5b3 7f80 	cmp.w	r3, #256	@ 0x100
 80029ae:	d822      	bhi.n	80029f6 <LL_TIM_OC_Init+0x76>
 80029b0:	68bb      	ldr	r3, [r7, #8]
 80029b2:	2b01      	cmp	r3, #1
 80029b4:	d003      	beq.n	80029be <LL_TIM_OC_Init+0x3e>
 80029b6:	68bb      	ldr	r3, [r7, #8]
 80029b8:	2b10      	cmp	r3, #16
 80029ba:	d007      	beq.n	80029cc <LL_TIM_OC_Init+0x4c>
      break;
    case LL_TIM_CHANNEL_CH4:
      result = OC4Config(TIMx, TIM_OC_InitStruct);
      break;
    default:
      break;
 80029bc:	e01b      	b.n	80029f6 <LL_TIM_OC_Init+0x76>
      result = OC1Config(TIMx, TIM_OC_InitStruct);
 80029be:	6879      	ldr	r1, [r7, #4]
 80029c0:	68f8      	ldr	r0, [r7, #12]
 80029c2:	f000 f81f 	bl	8002a04 <OC1Config>
 80029c6:	4603      	mov	r3, r0
 80029c8:	75fb      	strb	r3, [r7, #23]
      break;
 80029ca:	e015      	b.n	80029f8 <LL_TIM_OC_Init+0x78>
      result = OC2Config(TIMx, TIM_OC_InitStruct);
 80029cc:	6879      	ldr	r1, [r7, #4]
 80029ce:	68f8      	ldr	r0, [r7, #12]
 80029d0:	f000 f884 	bl	8002adc <OC2Config>
 80029d4:	4603      	mov	r3, r0
 80029d6:	75fb      	strb	r3, [r7, #23]
      break;
 80029d8:	e00e      	b.n	80029f8 <LL_TIM_OC_Init+0x78>
      result = OC3Config(TIMx, TIM_OC_InitStruct);
 80029da:	6879      	ldr	r1, [r7, #4]
 80029dc:	68f8      	ldr	r0, [r7, #12]
 80029de:	f000 f8ed 	bl	8002bbc <OC3Config>
 80029e2:	4603      	mov	r3, r0
 80029e4:	75fb      	strb	r3, [r7, #23]
      break;
 80029e6:	e007      	b.n	80029f8 <LL_TIM_OC_Init+0x78>
      result = OC4Config(TIMx, TIM_OC_InitStruct);
 80029e8:	6879      	ldr	r1, [r7, #4]
 80029ea:	68f8      	ldr	r0, [r7, #12]
 80029ec:	f000 f956 	bl	8002c9c <OC4Config>
 80029f0:	4603      	mov	r3, r0
 80029f2:	75fb      	strb	r3, [r7, #23]
      break;
 80029f4:	e000      	b.n	80029f8 <LL_TIM_OC_Init+0x78>
      break;
 80029f6:	bf00      	nop
  }

  return result;
 80029f8:	7dfb      	ldrb	r3, [r7, #23]
}
 80029fa:	4618      	mov	r0, r3
 80029fc:	3718      	adds	r7, #24
 80029fe:	46bd      	mov	sp, r7
 8002a00:	bd80      	pop	{r7, pc}
	...

08002a04 <OC1Config>:
  * @retval An ErrorStatus enumeration value:
  *          - SUCCESS: TIMx registers are de-initialized
  *          - ERROR: not applicable
  */
static ErrorStatus OC1Config(TIM_TypeDef *TIMx, const LL_TIM_OC_InitTypeDef *TIM_OCInitStruct)
{
 8002a04:	b580      	push	{r7, lr}
 8002a06:	b086      	sub	sp, #24
 8002a08:	af00      	add	r7, sp, #0
 8002a0a:	6078      	str	r0, [r7, #4]
 8002a0c:	6039      	str	r1, [r7, #0]
  assert_param(IS_LL_TIM_OCMODE(TIM_OCInitStruct->OCMode));
  assert_param(IS_LL_TIM_OCSTATE(TIM_OCInitStruct->OCState));
  assert_param(IS_LL_TIM_OCPOLARITY(TIM_OCInitStruct->OCPolarity));

  /* Disable the Channel 1: Reset the CC1E Bit */
  CLEAR_BIT(TIMx->CCER, TIM_CCER_CC1E);
 8002a0e:	687b      	ldr	r3, [r7, #4]
 8002a10:	6a1b      	ldr	r3, [r3, #32]
 8002a12:	f023 0201 	bic.w	r2, r3, #1
 8002a16:	687b      	ldr	r3, [r7, #4]
 8002a18:	621a      	str	r2, [r3, #32]

  /* Get the TIMx CCER register value */
  tmpccer = LL_TIM_ReadReg(TIMx, CCER);
 8002a1a:	687b      	ldr	r3, [r7, #4]
 8002a1c:	6a1b      	ldr	r3, [r3, #32]
 8002a1e:	617b      	str	r3, [r7, #20]

  /* Get the TIMx CR2 register value */
  tmpcr2 = LL_TIM_ReadReg(TIMx, CR2);
 8002a20:	687b      	ldr	r3, [r7, #4]
 8002a22:	685b      	ldr	r3, [r3, #4]
 8002a24:	613b      	str	r3, [r7, #16]

  /* Get the TIMx CCMR1 register value */
  tmpccmr1 = LL_TIM_ReadReg(TIMx, CCMR1);
 8002a26:	687b      	ldr	r3, [r7, #4]
 8002a28:	699b      	ldr	r3, [r3, #24]
 8002a2a:	60fb      	str	r3, [r7, #12]

  /* Reset Capture/Compare selection Bits */
  CLEAR_BIT(tmpccmr1, TIM_CCMR1_CC1S);
 8002a2c:	68fb      	ldr	r3, [r7, #12]
 8002a2e:	f023 0303 	bic.w	r3, r3, #3
 8002a32:	60fb      	str	r3, [r7, #12]

  /* Set the Output Compare Mode */
  MODIFY_REG(tmpccmr1, TIM_CCMR1_OC1M, TIM_OCInitStruct->OCMode);
 8002a34:	68fb      	ldr	r3, [r7, #12]
 8002a36:	f023 0270 	bic.w	r2, r3, #112	@ 0x70
 8002a3a:	683b      	ldr	r3, [r7, #0]
 8002a3c:	681b      	ldr	r3, [r3, #0]
 8002a3e:	4313      	orrs	r3, r2
 8002a40:	60fb      	str	r3, [r7, #12]

  /* Set the Output Compare Polarity */
  MODIFY_REG(tmpccer, TIM_CCER_CC1P, TIM_OCInitStruct->OCPolarity);
 8002a42:	697b      	ldr	r3, [r7, #20]
 8002a44:	f023 0202 	bic.w	r2, r3, #2
 8002a48:	683b      	ldr	r3, [r7, #0]
 8002a4a:	691b      	ldr	r3, [r3, #16]
 8002a4c:	4313      	orrs	r3, r2
 8002a4e:	617b      	str	r3, [r7, #20]

  /* Set the Output State */
  MODIFY_REG(tmpccer, TIM_CCER_CC1E, TIM_OCInitStruct->OCState);
 8002a50:	697b      	ldr	r3, [r7, #20]
 8002a52:	f023 0201 	bic.w	r2, r3, #1
 8002a56:	683b      	ldr	r3, [r7, #0]
 8002a58:	685b      	ldr	r3, [r3, #4]
 8002a5a:	4313      	orrs	r3, r2
 8002a5c:	617b      	str	r3, [r7, #20]

  if (IS_TIM_BREAK_INSTANCE(TIMx))
 8002a5e:	687b      	ldr	r3, [r7, #4]
 8002a60:	4a1c      	ldr	r2, [pc, #112]	@ (8002ad4 <OC1Config+0xd0>)
 8002a62:	4293      	cmp	r3, r2
 8002a64:	d003      	beq.n	8002a6e <OC1Config+0x6a>
 8002a66:	687b      	ldr	r3, [r7, #4]
 8002a68:	4a1b      	ldr	r2, [pc, #108]	@ (8002ad8 <OC1Config+0xd4>)
 8002a6a:	4293      	cmp	r3, r2
 8002a6c:	d11e      	bne.n	8002aac <OC1Config+0xa8>
    assert_param(IS_LL_TIM_OCSTATE(TIM_OCInitStruct->OCNState));
    assert_param(IS_LL_TIM_OCPOLARITY(TIM_OCInitStruct->OCNPolarity));
    assert_param(IS_LL_TIM_OCIDLESTATE(TIM_OCInitStruct->OCNIdleState));

    /* Set the complementary output Polarity */
    MODIFY_REG(tmpccer, TIM_CCER_CC1NP, TIM_OCInitStruct->OCNPolarity << 2U);
 8002a6e:	697b      	ldr	r3, [r7, #20]
 8002a70:	f023 0208 	bic.w	r2, r3, #8
 8002a74:	683b      	ldr	r3, [r7, #0]
 8002a76:	695b      	ldr	r3, [r3, #20]
 8002a78:	009b      	lsls	r3, r3, #2
 8002a7a:	4313      	orrs	r3, r2
 8002a7c:	617b      	str	r3, [r7, #20]

    /* Set the complementary output State */
    MODIFY_REG(tmpccer, TIM_CCER_CC1NE, TIM_OCInitStruct->OCNState << 2U);
 8002a7e:	697b      	ldr	r3, [r7, #20]
 8002a80:	f023 0204 	bic.w	r2, r3, #4
 8002a84:	683b      	ldr	r3, [r7, #0]
 8002a86:	689b      	ldr	r3, [r3, #8]
 8002a88:	009b      	lsls	r3, r3, #2
 8002a8a:	4313      	orrs	r3, r2
 8002a8c:	617b      	str	r3, [r7, #20]

    /* Set the Output Idle state */
    MODIFY_REG(tmpcr2, TIM_CR2_OIS1, TIM_OCInitStruct->OCIdleState);
 8002a8e:	693b      	ldr	r3, [r7, #16]
 8002a90:	f423 7280 	bic.w	r2, r3, #256	@ 0x100
 8002a94:	683b      	ldr	r3, [r7, #0]
 8002a96:	699b      	ldr	r3, [r3, #24]
 8002a98:	4313      	orrs	r3, r2
 8002a9a:	613b      	str	r3, [r7, #16]

    /* Set the complementary output Idle state */
    MODIFY_REG(tmpcr2, TIM_CR2_OIS1N, TIM_OCInitStruct->OCNIdleState << 1U);
 8002a9c:	693b      	ldr	r3, [r7, #16]
 8002a9e:	f423 7200 	bic.w	r2, r3, #512	@ 0x200
 8002aa2:	683b      	ldr	r3, [r7, #0]
 8002aa4:	69db      	ldr	r3, [r3, #28]
 8002aa6:	005b      	lsls	r3, r3, #1
 8002aa8:	4313      	orrs	r3, r2
 8002aaa:	613b      	str	r3, [r7, #16]
  }

  /* Write to TIMx CR2 */
  LL_TIM_WriteReg(TIMx, CR2, tmpcr2);
 8002aac:	687b      	ldr	r3, [r7, #4]
 8002aae:	693a      	ldr	r2, [r7, #16]
 8002ab0:	605a      	str	r2, [r3, #4]

  /* Write to TIMx CCMR1 */
  LL_TIM_WriteReg(TIMx, CCMR1, tmpccmr1);
 8002ab2:	687b      	ldr	r3, [r7, #4]
 8002ab4:	68fa      	ldr	r2, [r7, #12]
 8002ab6:	619a      	str	r2, [r3, #24]

  /* Set the Capture Compare Register value */
  LL_TIM_OC_SetCompareCH1(TIMx, TIM_OCInitStruct->CompareValue);
 8002ab8:	683b      	ldr	r3, [r7, #0]
 8002aba:	68db      	ldr	r3, [r3, #12]
 8002abc:	4619      	mov	r1, r3
 8002abe:	6878      	ldr	r0, [r7, #4]
 8002ac0:	f7ff fe7b 	bl	80027ba <LL_TIM_OC_SetCompareCH1>

  /* Write to TIMx CCER */
  LL_TIM_WriteReg(TIMx, CCER, tmpccer);
 8002ac4:	687b      	ldr	r3, [r7, #4]
 8002ac6:	697a      	ldr	r2, [r7, #20]
 8002ac8:	621a      	str	r2, [r3, #32]

  return SUCCESS;
 8002aca:	2300      	movs	r3, #0
}
 8002acc:	4618      	mov	r0, r3
 8002ace:	3718      	adds	r7, #24
 8002ad0:	46bd      	mov	sp, r7
 8002ad2:	bd80      	pop	{r7, pc}
 8002ad4:	40010000 	.word	0x40010000
 8002ad8:	40010400 	.word	0x40010400

08002adc <OC2Config>:
  * @retval An ErrorStatus enumeration value:
  *          - SUCCESS: TIMx registers are de-initialized
  *          - ERROR: not applicable
  */
static ErrorStatus OC2Config(TIM_TypeDef *TIMx, const LL_TIM_OC_InitTypeDef *TIM_OCInitStruct)
{
 8002adc:	b580      	push	{r7, lr}
 8002ade:	b086      	sub	sp, #24
 8002ae0:	af00      	add	r7, sp, #0
 8002ae2:	6078      	str	r0, [r7, #4]
 8002ae4:	6039      	str	r1, [r7, #0]
  assert_param(IS_LL_TIM_OCMODE(TIM_OCInitStruct->OCMode));
  assert_param(IS_LL_TIM_OCSTATE(TIM_OCInitStruct->OCState));
  assert_param(IS_LL_TIM_OCPOLARITY(TIM_OCInitStruct->OCPolarity));

  /* Disable the Channel 2: Reset the CC2E Bit */
  CLEAR_BIT(TIMx->CCER, TIM_CCER_CC2E);
 8002ae6:	687b      	ldr	r3, [r7, #4]
 8002ae8:	6a1b      	ldr	r3, [r3, #32]
 8002aea:	f023 0210 	bic.w	r2, r3, #16
 8002aee:	687b      	ldr	r3, [r7, #4]
 8002af0:	621a      	str	r2, [r3, #32]

  /* Get the TIMx CCER register value */
  tmpccer =  LL_TIM_ReadReg(TIMx, CCER);
 8002af2:	687b      	ldr	r3, [r7, #4]
 8002af4:	6a1b      	ldr	r3, [r3, #32]
 8002af6:	617b      	str	r3, [r7, #20]

  /* Get the TIMx CR2 register value */
  tmpcr2 = LL_TIM_ReadReg(TIMx, CR2);
 8002af8:	687b      	ldr	r3, [r7, #4]
 8002afa:	685b      	ldr	r3, [r3, #4]
 8002afc:	613b      	str	r3, [r7, #16]

  /* Get the TIMx CCMR1 register value */
  tmpccmr1 = LL_TIM_ReadReg(TIMx, CCMR1);
 8002afe:	687b      	ldr	r3, [r7, #4]
 8002b00:	699b      	ldr	r3, [r3, #24]
 8002b02:	60fb      	str	r3, [r7, #12]

  /* Reset Capture/Compare selection Bits */
  CLEAR_BIT(tmpccmr1, TIM_CCMR1_CC2S);
 8002b04:	68fb      	ldr	r3, [r7, #12]
 8002b06:	f423 7340 	bic.w	r3, r3, #768	@ 0x300
 8002b0a:	60fb      	str	r3, [r7, #12]

  /* Select the Output Compare Mode */
  MODIFY_REG(tmpccmr1, TIM_CCMR1_OC2M, TIM_OCInitStruct->OCMode << 8U);
 8002b0c:	68fb      	ldr	r3, [r7, #12]
 8002b0e:	f423 42e0 	bic.w	r2, r3, #28672	@ 0x7000
 8002b12:	683b      	ldr	r3, [r7, #0]
 8002b14:	681b      	ldr	r3, [r3, #0]
 8002b16:	021b      	lsls	r3, r3, #8
 8002b18:	4313      	orrs	r3, r2
 8002b1a:	60fb      	str	r3, [r7, #12]

  /* Set the Output Compare Polarity */
  MODIFY_REG(tmpccer, TIM_CCER_CC2P, TIM_OCInitStruct->OCPolarity << 4U);
 8002b1c:	697b      	ldr	r3, [r7, #20]
 8002b1e:	f023 0220 	bic.w	r2, r3, #32
 8002b22:	683b      	ldr	r3, [r7, #0]
 8002b24:	691b      	ldr	r3, [r3, #16]
 8002b26:	011b      	lsls	r3, r3, #4
 8002b28:	4313      	orrs	r3, r2
 8002b2a:	617b      	str	r3, [r7, #20]

  /* Set the Output State */
  MODIFY_REG(tmpccer, TIM_CCER_CC2E, TIM_OCInitStruct->OCState << 4U);
 8002b2c:	697b      	ldr	r3, [r7, #20]
 8002b2e:	f023 0210 	bic.w	r2, r3, #16
 8002b32:	683b      	ldr	r3, [r7, #0]
 8002b34:	685b      	ldr	r3, [r3, #4]
 8002b36:	011b      	lsls	r3, r3, #4
 8002b38:	4313      	orrs	r3, r2
 8002b3a:	617b      	str	r3, [r7, #20]

  if (IS_TIM_BREAK_INSTANCE(TIMx))
 8002b3c:	687b      	ldr	r3, [r7, #4]
 8002b3e:	4a1d      	ldr	r2, [pc, #116]	@ (8002bb4 <OC2Config+0xd8>)
 8002b40:	4293      	cmp	r3, r2
 8002b42:	d003      	beq.n	8002b4c <OC2Config+0x70>
 8002b44:	687b      	ldr	r3, [r7, #4]
 8002b46:	4a1c      	ldr	r2, [pc, #112]	@ (8002bb8 <OC2Config+0xdc>)
 8002b48:	4293      	cmp	r3, r2
 8002b4a:	d11f      	bne.n	8002b8c <OC2Config+0xb0>
    assert_param(IS_LL_TIM_OCSTATE(TIM_OCInitStruct->OCNState));
    assert_param(IS_LL_TIM_OCPOLARITY(TIM_OCInitStruct->OCNPolarity));
    assert_param(IS_LL_TIM_OCIDLESTATE(TIM_OCInitStruct->OCNIdleState));

    /* Set the complementary output Polarity */
    MODIFY_REG(tmpccer, TIM_CCER_CC2NP, TIM_OCInitStruct->OCNPolarity << 6U);
 8002b4c:	697b      	ldr	r3, [r7, #20]
 8002b4e:	f023 0280 	bic.w	r2, r3, #128	@ 0x80
 8002b52:	683b      	ldr	r3, [r7, #0]
 8002b54:	695b      	ldr	r3, [r3, #20]
 8002b56:	019b      	lsls	r3, r3, #6
 8002b58:	4313      	orrs	r3, r2
 8002b5a:	617b      	str	r3, [r7, #20]

    /* Set the complementary output State */
    MODIFY_REG(tmpccer, TIM_CCER_CC2NE, TIM_OCInitStruct->OCNState << 6U);
 8002b5c:	697b      	ldr	r3, [r7, #20]
 8002b5e:	f023 0240 	bic.w	r2, r3, #64	@ 0x40
 8002b62:	683b      	ldr	r3, [r7, #0]
 8002b64:	689b      	ldr	r3, [r3, #8]
 8002b66:	019b      	lsls	r3, r3, #6
 8002b68:	4313      	orrs	r3, r2
 8002b6a:	617b      	str	r3, [r7, #20]

    /* Set the Output Idle state */
    MODIFY_REG(tmpcr2, TIM_CR2_OIS2, TIM_OCInitStruct->OCIdleState << 2U);
 8002b6c:	693b      	ldr	r3, [r7, #16]
 8002b6e:	f423 6280 	bic.w	r2, r3, #1024	@ 0x400
 8002b72:	683b      	ldr	r3, [r7, #0]
 8002b74:	699b      	ldr	r3, [r3, #24]
 8002b76:	009b      	lsls	r3, r3, #2
 8002b78:	4313      	orrs	r3, r2
 8002b7a:	613b      	str	r3, [r7, #16]

    /* Set the complementary output Idle state */
    MODIFY_REG(tmpcr2, TIM_CR2_OIS2N, TIM_OCInitStruct->OCNIdleState << 3U);
 8002b7c:	693b      	ldr	r3, [r7, #16]
 8002b7e:	f423 6200 	bic.w	r2, r3, #2048	@ 0x800
 8002b82:	683b      	ldr	r3, [r7, #0]
 8002b84:	69db      	ldr	r3, [r3, #28]
 8002b86:	00db      	lsls	r3, r3, #3
 8002b88:	4313      	orrs	r3, r2
 8002b8a:	613b      	str	r3, [r7, #16]
  }

  /* Write to TIMx CR2 */
  LL_TIM_WriteReg(TIMx, CR2, tmpcr2);
 8002b8c:	687b      	ldr	r3, [r7, #4]
 8002b8e:	693a      	ldr	r2, [r7, #16]
 8002b90:	605a      	str	r2, [r3, #4]

  /* Write to TIMx CCMR1 */
  LL_TIM_WriteReg(TIMx, CCMR1, tmpccmr1);
 8002b92:	687b      	ldr	r3, [r7, #4]
 8002b94:	68fa      	ldr	r2, [r7, #12]
 8002b96:	619a      	str	r2, [r3, #24]

  /* Set the Capture Compare Register value */
  LL_TIM_OC_SetCompareCH2(TIMx, TIM_OCInitStruct->CompareValue);
 8002b98:	683b      	ldr	r3, [r7, #0]
 8002b9a:	68db      	ldr	r3, [r3, #12]
 8002b9c:	4619      	mov	r1, r3
 8002b9e:	6878      	ldr	r0, [r7, #4]
 8002ba0:	f7ff fe19 	bl	80027d6 <LL_TIM_OC_SetCompareCH2>

  /* Write to TIMx CCER */
  LL_TIM_WriteReg(TIMx, CCER, tmpccer);
 8002ba4:	687b      	ldr	r3, [r7, #4]
 8002ba6:	697a      	ldr	r2, [r7, #20]
 8002ba8:	621a      	str	r2, [r3, #32]

  return SUCCESS;
 8002baa:	2300      	movs	r3, #0
}
 8002bac:	4618      	mov	r0, r3
 8002bae:	3718      	adds	r7, #24
 8002bb0:	46bd      	mov	sp, r7
 8002bb2:	bd80      	pop	{r7, pc}
 8002bb4:	40010000 	.word	0x40010000
 8002bb8:	40010400 	.word	0x40010400

08002bbc <OC3Config>:
  * @retval An ErrorStatus enumeration value:
  *          - SUCCESS: TIMx registers are de-initialized
  *          - ERROR: not applicable
  */
static ErrorStatus OC3Config(TIM_TypeDef *TIMx, const LL_TIM_OC_InitTypeDef *TIM_OCInitStruct)
{
 8002bbc:	b580      	push	{r7, lr}
 8002bbe:	b086      	sub	sp, #24
 8002bc0:	af00      	add	r7, sp, #0
 8002bc2:	6078      	str	r0, [r7, #4]
 8002bc4:	6039      	str	r1, [r7, #0]
  assert_param(IS_LL_TIM_OCMODE(TIM_OCInitStruct->OCMode));
  assert_param(IS_LL_TIM_OCSTATE(TIM_OCInitStruct->OCState));
  assert_param(IS_LL_TIM_OCPOLARITY(TIM_OCInitStruct->OCPolarity));

  /* Disable the Channel 3: Reset the CC3E Bit */
  CLEAR_BIT(TIMx->CCER, TIM_CCER_CC3E);
 8002bc6:	687b      	ldr	r3, [r7, #4]
 8002bc8:	6a1b      	ldr	r3, [r3, #32]
 8002bca:	f423 7280 	bic.w	r2, r3, #256	@ 0x100
 8002bce:	687b      	ldr	r3, [r7, #4]
 8002bd0:	621a      	str	r2, [r3, #32]

  /* Get the TIMx CCER register value */
  tmpccer =  LL_TIM_ReadReg(TIMx, CCER);
 8002bd2:	687b      	ldr	r3, [r7, #4]
 8002bd4:	6a1b      	ldr	r3, [r3, #32]
 8002bd6:	617b      	str	r3, [r7, #20]

  /* Get the TIMx CR2 register value */
  tmpcr2 = LL_TIM_ReadReg(TIMx, CR2);
 8002bd8:	687b      	ldr	r3, [r7, #4]
 8002bda:	685b      	ldr	r3, [r3, #4]
 8002bdc:	613b      	str	r3, [r7, #16]

  /* Get the TIMx CCMR2 register value */
  tmpccmr2 = LL_TIM_ReadReg(TIMx, CCMR2);
 8002bde:	687b      	ldr	r3, [r7, #4]
 8002be0:	69db      	ldr	r3, [r3, #28]
 8002be2:	60fb      	str	r3, [r7, #12]

  /* Reset Capture/Compare selection Bits */
  CLEAR_BIT(tmpccmr2, TIM_CCMR2_CC3S);
 8002be4:	68fb      	ldr	r3, [r7, #12]
 8002be6:	f023 0303 	bic.w	r3, r3, #3
 8002bea:	60fb      	str	r3, [r7, #12]

  /* Select the Output Compare Mode */
  MODIFY_REG(tmpccmr2, TIM_CCMR2_OC3M, TIM_OCInitStruct->OCMode);
 8002bec:	68fb      	ldr	r3, [r7, #12]
 8002bee:	f023 0270 	bic.w	r2, r3, #112	@ 0x70
 8002bf2:	683b      	ldr	r3, [r7, #0]
 8002bf4:	681b      	ldr	r3, [r3, #0]
 8002bf6:	4313      	orrs	r3, r2
 8002bf8:	60fb      	str	r3, [r7, #12]

  /* Set the Output Compare Polarity */
  MODIFY_REG(tmpccer, TIM_CCER_CC3P, TIM_OCInitStruct->OCPolarity << 8U);
 8002bfa:	697b      	ldr	r3, [r7, #20]
 8002bfc:	f423 7200 	bic.w	r2, r3, #512	@ 0x200
 8002c00:	683b      	ldr	r3, [r7, #0]
 8002c02:	691b      	ldr	r3, [r3, #16]
 8002c04:	021b      	lsls	r3, r3, #8
 8002c06:	4313      	orrs	r3, r2
 8002c08:	617b      	str	r3, [r7, #20]

  /* Set the Output State */
  MODIFY_REG(tmpccer, TIM_CCER_CC3E, TIM_OCInitStruct->OCState << 8U);
 8002c0a:	697b      	ldr	r3, [r7, #20]
 8002c0c:	f423 7280 	bic.w	r2, r3, #256	@ 0x100
 8002c10:	683b      	ldr	r3, [r7, #0]
 8002c12:	685b      	ldr	r3, [r3, #4]
 8002c14:	021b      	lsls	r3, r3, #8
 8002c16:	4313      	orrs	r3, r2
 8002c18:	617b      	str	r3, [r7, #20]

  if (IS_TIM_BREAK_INSTANCE(TIMx))
 8002c1a:	687b      	ldr	r3, [r7, #4]
 8002c1c:	4a1d      	ldr	r2, [pc, #116]	@ (8002c94 <OC3Config+0xd8>)
 8002c1e:	4293      	cmp	r3, r2
 8002c20:	d003      	beq.n	8002c2a <OC3Config+0x6e>
 8002c22:	687b      	ldr	r3, [r7, #4]
 8002c24:	4a1c      	ldr	r2, [pc, #112]	@ (8002c98 <OC3Config+0xdc>)
 8002c26:	4293      	cmp	r3, r2
 8002c28:	d11f      	bne.n	8002c6a <OC3Config+0xae>
    assert_param(IS_LL_TIM_OCSTATE(TIM_OCInitStruct->OCNState));
    assert_param(IS_LL_TIM_OCPOLARITY(TIM_OCInitStruct->OCNPolarity));
    assert_param(IS_LL_TIM_OCIDLESTATE(TIM_OCInitStruct->OCNIdleState));

    /* Set the complementary output Polarity */
    MODIFY_REG(tmpccer, TIM_CCER_CC3NP, TIM_OCInitStruct->OCNPolarity << 10U);
 8002c2a:	697b      	ldr	r3, [r7, #20]
 8002c2c:	f423 6200 	bic.w	r2, r3, #2048	@ 0x800
 8002c30:	683b      	ldr	r3, [r7, #0]
 8002c32:	695b      	ldr	r3, [r3, #20]
 8002c34:	029b      	lsls	r3, r3, #10
 8002c36:	4313      	orrs	r3, r2
 8002c38:	617b      	str	r3, [r7, #20]

    /* Set the complementary output State */
    MODIFY_REG(tmpccer, TIM_CCER_CC3NE, TIM_OCInitStruct->OCNState << 10U);
 8002c3a:	697b      	ldr	r3, [r7, #20]
 8002c3c:	f423 6280 	bic.w	r2, r3, #1024	@ 0x400
 8002c40:	683b      	ldr	r3, [r7, #0]
 8002c42:	689b      	ldr	r3, [r3, #8]
 8002c44:	029b      	lsls	r3, r3, #10
 8002c46:	4313      	orrs	r3, r2
 8002c48:	617b      	str	r3, [r7, #20]

    /* Set the Output Idle state */
    MODIFY_REG(tmpcr2, TIM_CR2_OIS3, TIM_OCInitStruct->OCIdleState << 4U);
 8002c4a:	693b      	ldr	r3, [r7, #16]
 8002c4c:	f423 5280 	bic.w	r2, r3, #4096	@ 0x1000
 8002c50:	683b      	ldr	r3, [r7, #0]
 8002c52:	699b      	ldr	r3, [r3, #24]
 8002c54:	011b      	lsls	r3, r3, #4
 8002c56:	4313      	orrs	r3, r2
 8002c58:	613b      	str	r3, [r7, #16]

    /* Set the complementary output Idle state */
    MODIFY_REG(tmpcr2, TIM_CR2_OIS3N, TIM_OCInitStruct->OCNIdleState << 5U);
 8002c5a:	693b      	ldr	r3, [r7, #16]
 8002c5c:	f423 5200 	bic.w	r2, r3, #8192	@ 0x2000
 8002c60:	683b      	ldr	r3, [r7, #0]
 8002c62:	69db      	ldr	r3, [r3, #28]
 8002c64:	015b      	lsls	r3, r3, #5
 8002c66:	4313      	orrs	r3, r2
 8002c68:	613b      	str	r3, [r7, #16]
  }

  /* Write to TIMx CR2 */
  LL_TIM_WriteReg(TIMx, CR2, tmpcr2);
 8002c6a:	687b      	ldr	r3, [r7, #4]
 8002c6c:	693a      	ldr	r2, [r7, #16]
 8002c6e:	605a      	str	r2, [r3, #4]

  /* Write to TIMx CCMR2 */
  LL_TIM_WriteReg(TIMx, CCMR2, tmpccmr2);
 8002c70:	687b      	ldr	r3, [r7, #4]
 8002c72:	68fa      	ldr	r2, [r7, #12]
 8002c74:	61da      	str	r2, [r3, #28]

  /* Set the Capture Compare Register value */
  LL_TIM_OC_SetCompareCH3(TIMx, TIM_OCInitStruct->CompareValue);
 8002c76:	683b      	ldr	r3, [r7, #0]
 8002c78:	68db      	ldr	r3, [r3, #12]
 8002c7a:	4619      	mov	r1, r3
 8002c7c:	6878      	ldr	r0, [r7, #4]
 8002c7e:	f7ff fdb8 	bl	80027f2 <LL_TIM_OC_SetCompareCH3>

  /* Write to TIMx CCER */
  LL_TIM_WriteReg(TIMx, CCER, tmpccer);
 8002c82:	687b      	ldr	r3, [r7, #4]
 8002c84:	697a      	ldr	r2, [r7, #20]
 8002c86:	621a      	str	r2, [r3, #32]

  return SUCCESS;
 8002c88:	2300      	movs	r3, #0
}
 8002c8a:	4618      	mov	r0, r3
 8002c8c:	3718      	adds	r7, #24
 8002c8e:	46bd      	mov	sp, r7
 8002c90:	bd80      	pop	{r7, pc}
 8002c92:	bf00      	nop
 8002c94:	40010000 	.word	0x40010000
 8002c98:	40010400 	.word	0x40010400

08002c9c <OC4Config>:
  * @retval An ErrorStatus enumeration value:
  *          - SUCCESS: TIMx registers are de-initialized
  *          - ERROR: not applicable
  */
static ErrorStatus OC4Config(TIM_TypeDef *TIMx, const LL_TIM_OC_InitTypeDef *TIM_OCInitStruct)
{
 8002c9c:	b580      	push	{r7, lr}
 8002c9e:	b086      	sub	sp, #24
 8002ca0:	af00      	add	r7, sp, #0
 8002ca2:	6078      	str	r0, [r7, #4]
 8002ca4:	6039      	str	r1, [r7, #0]
  assert_param(IS_LL_TIM_OCMODE(TIM_OCInitStruct->OCMode));
  assert_param(IS_LL_TIM_OCSTATE(TIM_OCInitStruct->OCState));
  assert_param(IS_LL_TIM_OCPOLARITY(TIM_OCInitStruct->OCPolarity));

  /* Disable the Channel 4: Reset the CC4E Bit */
  CLEAR_BIT(TIMx->CCER, TIM_CCER_CC4E);
 8002ca6:	687b      	ldr	r3, [r7, #4]
 8002ca8:	6a1b      	ldr	r3, [r3, #32]
 8002caa:	f423 5280 	bic.w	r2, r3, #4096	@ 0x1000
 8002cae:	687b      	ldr	r3, [r7, #4]
 8002cb0:	621a      	str	r2, [r3, #32]

  /* Get the TIMx CCER register value */
  tmpccer = LL_TIM_ReadReg(TIMx, CCER);
 8002cb2:	687b      	ldr	r3, [r7, #4]
 8002cb4:	6a1b      	ldr	r3, [r3, #32]
 8002cb6:	613b      	str	r3, [r7, #16]

  /* Get the TIMx CR2 register value */
  tmpcr2 =  LL_TIM_ReadReg(TIMx, CR2);
 8002cb8:	687b      	ldr	r3, [r7, #4]
 8002cba:	685b      	ldr	r3, [r3, #4]
 8002cbc:	617b      	str	r3, [r7, #20]

  /* Get the TIMx CCMR2 register value */
  tmpccmr2 = LL_TIM_ReadReg(TIMx, CCMR2);
 8002cbe:	687b      	ldr	r3, [r7, #4]
 8002cc0:	69db      	ldr	r3, [r3, #28]
 8002cc2:	60fb      	str	r3, [r7, #12]

  /* Reset Capture/Compare selection Bits */
  CLEAR_BIT(tmpccmr2, TIM_CCMR2_CC4S);
 8002cc4:	68fb      	ldr	r3, [r7, #12]
 8002cc6:	f423 7340 	bic.w	r3, r3, #768	@ 0x300
 8002cca:	60fb      	str	r3, [r7, #12]

  /* Select the Output Compare Mode */
  MODIFY_REG(tmpccmr2, TIM_CCMR2_OC4M, TIM_OCInitStruct->OCMode << 8U);
 8002ccc:	68fb      	ldr	r3, [r7, #12]
 8002cce:	f423 42e0 	bic.w	r2, r3, #28672	@ 0x7000
 8002cd2:	683b      	ldr	r3, [r7, #0]
 8002cd4:	681b      	ldr	r3, [r3, #0]
 8002cd6:	021b      	lsls	r3, r3, #8
 8002cd8:	4313      	orrs	r3, r2
 8002cda:	60fb      	str	r3, [r7, #12]

  /* Set the Output Compare Polarity */
  MODIFY_REG(tmpccer, TIM_CCER_CC4P, TIM_OCInitStruct->OCPolarity << 12U);
 8002cdc:	693b      	ldr	r3, [r7, #16]
 8002cde:	f423 5200 	bic.w	r2, r3, #8192	@ 0x2000
 8002ce2:	683b      	ldr	r3, [r7, #0]
 8002ce4:	691b      	ldr	r3, [r3, #16]
 8002ce6:	031b      	lsls	r3, r3, #12
 8002ce8:	4313      	orrs	r3, r2
 8002cea:	613b      	str	r3, [r7, #16]

  /* Set the Output State */
  MODIFY_REG(tmpccer, TIM_CCER_CC4E, TIM_OCInitStruct->OCState << 12U);
 8002cec:	693b      	ldr	r3, [r7, #16]
 8002cee:	f423 5280 	bic.w	r2, r3, #4096	@ 0x1000
 8002cf2:	683b      	ldr	r3, [r7, #0]
 8002cf4:	685b      	ldr	r3, [r3, #4]
 8002cf6:	031b      	lsls	r3, r3, #12
 8002cf8:	4313      	orrs	r3, r2
 8002cfa:	613b      	str	r3, [r7, #16]

  if (IS_TIM_BREAK_INSTANCE(TIMx))
 8002cfc:	687b      	ldr	r3, [r7, #4]
 8002cfe:	4a11      	ldr	r2, [pc, #68]	@ (8002d44 <OC4Config+0xa8>)
 8002d00:	4293      	cmp	r3, r2
 8002d02:	d003      	beq.n	8002d0c <OC4Config+0x70>
 8002d04:	687b      	ldr	r3, [r7, #4]
 8002d06:	4a10      	ldr	r2, [pc, #64]	@ (8002d48 <OC4Config+0xac>)
 8002d08:	4293      	cmp	r3, r2
 8002d0a:	d107      	bne.n	8002d1c <OC4Config+0x80>
  {
    assert_param(IS_LL_TIM_OCIDLESTATE(TIM_OCInitStruct->OCIdleState));

    /* Set the Output Idle state */
    MODIFY_REG(tmpcr2, TIM_CR2_OIS4, TIM_OCInitStruct->OCIdleState << 6U);
 8002d0c:	697b      	ldr	r3, [r7, #20]
 8002d0e:	f423 4280 	bic.w	r2, r3, #16384	@ 0x4000
 8002d12:	683b      	ldr	r3, [r7, #0]
 8002d14:	699b      	ldr	r3, [r3, #24]
 8002d16:	019b      	lsls	r3, r3, #6
 8002d18:	4313      	orrs	r3, r2
 8002d1a:	617b      	str	r3, [r7, #20]
  }

  /* Write to TIMx CR2 */
  LL_TIM_WriteReg(TIMx, CR2, tmpcr2);
 8002d1c:	687b      	ldr	r3, [r7, #4]
 8002d1e:	697a      	ldr	r2, [r7, #20]
 8002d20:	605a      	str	r2, [r3, #4]

  /* Write to TIMx CCMR2 */
  LL_TIM_WriteReg(TIMx, CCMR2, tmpccmr2);
 8002d22:	687b      	ldr	r3, [r7, #4]
 8002d24:	68fa      	ldr	r2, [r7, #12]
 8002d26:	61da      	str	r2, [r3, #28]

  /* Set the Capture Compare Register value */
  LL_TIM_OC_SetCompareCH4(TIMx, TIM_OCInitStruct->CompareValue);
 8002d28:	683b      	ldr	r3, [r7, #0]
 8002d2a:	68db      	ldr	r3, [r3, #12]
 8002d2c:	4619      	mov	r1, r3
 8002d2e:	6878      	ldr	r0, [r7, #4]
 8002d30:	f7ff fd6d 	bl	800280e <LL_TIM_OC_SetCompareCH4>

  /* Write to TIMx CCER */
  LL_TIM_WriteReg(TIMx, CCER, tmpccer);
 8002d34:	687b      	ldr	r3, [r7, #4]
 8002d36:	693a      	ldr	r2, [r7, #16]
 8002d38:	621a      	str	r2, [r3, #32]

  return SUCCESS;
 8002d3a:	2300      	movs	r3, #0
}
 8002d3c:	4618      	mov	r0, r3
 8002d3e:	3718      	adds	r7, #24
 8002d40:	46bd      	mov	sp, r7
 8002d42:	bd80      	pop	{r7, pc}
 8002d44:	40010000 	.word	0x40010000
 8002d48:	40010400 	.word	0x40010400

08002d4c <LL_SetSystemCoreClock>:
  * @note   Variable can be calculated also through SystemCoreClockUpdate function.
  * @param  HCLKFrequency HCLK frequency in Hz (can be calculated thanks to RCC helper macro)
  * @retval None
  */
void LL_SetSystemCoreClock(uint32_t HCLKFrequency)
{
 8002d4c:	b480      	push	{r7}
 8002d4e:	b083      	sub	sp, #12
 8002d50:	af00      	add	r7, sp, #0
 8002d52:	6078      	str	r0, [r7, #4]
  /* HCLK clock frequency */
  SystemCoreClock = HCLKFrequency;
 8002d54:	4a04      	ldr	r2, [pc, #16]	@ (8002d68 <LL_SetSystemCoreClock+0x1c>)
 8002d56:	687b      	ldr	r3, [r7, #4]
 8002d58:	6013      	str	r3, [r2, #0]
}
 8002d5a:	bf00      	nop
 8002d5c:	370c      	adds	r7, #12
 8002d5e:	46bd      	mov	sp, r7
 8002d60:	f85d 7b04 	ldr.w	r7, [sp], #4
 8002d64:	4770      	bx	lr
 8002d66:	bf00      	nop
 8002d68:	20000000 	.word	0x20000000

08002d6c <memset>:
 8002d6c:	4402      	add	r2, r0
 8002d6e:	4603      	mov	r3, r0
 8002d70:	4293      	cmp	r3, r2
 8002d72:	d100      	bne.n	8002d76 <memset+0xa>
 8002d74:	4770      	bx	lr
 8002d76:	f803 1b01 	strb.w	r1, [r3], #1
 8002d7a:	e7f9      	b.n	8002d70 <memset+0x4>

08002d7c <__libc_init_array>:
 8002d7c:	b570      	push	{r4, r5, r6, lr}
 8002d7e:	4d0d      	ldr	r5, [pc, #52]	@ (8002db4 <__libc_init_array+0x38>)
 8002d80:	4c0d      	ldr	r4, [pc, #52]	@ (8002db8 <__libc_init_array+0x3c>)
 8002d82:	1b64      	subs	r4, r4, r5
 8002d84:	10a4      	asrs	r4, r4, #2
 8002d86:	2600      	movs	r6, #0
 8002d88:	42a6      	cmp	r6, r4
 8002d8a:	d109      	bne.n	8002da0 <__libc_init_array+0x24>
 8002d8c:	4d0b      	ldr	r5, [pc, #44]	@ (8002dbc <__libc_init_array+0x40>)
 8002d8e:	4c0c      	ldr	r4, [pc, #48]	@ (8002dc0 <__libc_init_array+0x44>)
 8002d90:	f000 f818 	bl	8002dc4 <_init>
 8002d94:	1b64      	subs	r4, r4, r5
 8002d96:	10a4      	asrs	r4, r4, #2
 8002d98:	2600      	movs	r6, #0
 8002d9a:	42a6      	cmp	r6, r4
 8002d9c:	d105      	bne.n	8002daa <__libc_init_array+0x2e>
 8002d9e:	bd70      	pop	{r4, r5, r6, pc}
 8002da0:	f855 3b04 	ldr.w	r3, [r5], #4
 8002da4:	4798      	blx	r3
 8002da6:	3601      	adds	r6, #1
 8002da8:	e7ee      	b.n	8002d88 <__libc_init_array+0xc>
 8002daa:	f855 3b04 	ldr.w	r3, [r5], #4
 8002dae:	4798      	blx	r3
 8002db0:	3601      	adds	r6, #1
 8002db2:	e7f2      	b.n	8002d9a <__libc_init_array+0x1e>
 8002db4:	08002dfc 	.word	0x08002dfc
 8002db8:	08002dfc 	.word	0x08002dfc
 8002dbc:	08002dfc 	.word	0x08002dfc
 8002dc0:	08002e00 	.word	0x08002e00

08002dc4 <_init>:
 8002dc4:	b5f8      	push	{r3, r4, r5, r6, r7, lr}
 8002dc6:	bf00      	nop
 8002dc8:	bcf8      	pop	{r3, r4, r5, r6, r7}
 8002dca:	bc08      	pop	{r3}
 8002dcc:	469e      	mov	lr, r3
 8002dce:	4770      	bx	lr

08002dd0 <_fini>:
 8002dd0:	b5f8      	push	{r3, r4, r5, r6, r7, lr}
 8002dd2:	bf00      	nop
 8002dd4:	bcf8      	pop	{r3, r4, r5, r6, r7}
 8002dd6:	bc08      	pop	{r3}
 8002dd8:	469e      	mov	lr, r3
 8002dda:	4770      	bx	lr
